
kernel/kernel:     file format elf64-littleriscv


Disassembly of section .text:

0000000080000000 <_entry>:
_entry:
        # set up a stack for C.
        # stack0 is declared in start.c,
        # with a 4096-byte stack per CPU.
        # sp = stack0 + (hartid * 4096)
        la sp, stack0
    80000000:	0000b117          	auipc	sp,0xb
    80000004:	ad010113          	add	sp,sp,-1328 # 8000aad0 <stack0>
        li a0, 1024*4
    80000008:	00001537          	lui	a0,0x1
        csrr a1, mhartid
    8000000c:	f14025f3          	csrr	a1,mhartid
        addi a1, a1, 1
    80000010:	00158593          	add	a1,a1,1
        mul a0, a0, a1
    80000014:	02b50533          	mul	a0,a0,a1
        add sp, sp, a0
    80000018:	00a10133          	add	sp,sp,a0
        # jump to start() in start.c
        call start
    8000001c:	00000097          	auipc	ra,0x0
    80000020:	098080e7          	jalr	152(ra) # 800000b4 <start>

0000000080000024 <spin>:
spin:
        j spin
    80000024:	0000006f          	j	80000024 <spin>

0000000080000028 <timerinit>:
// at timervec in kernelvec.S,
// which turns them into software interrupts for
// devintr() in trap.c.
void
timerinit()
{
    80000028:	ff010113          	add	sp,sp,-16
    8000002c:	00813423          	sd	s0,8(sp)
    80000030:	01010413          	add	s0,sp,16
// which hart (core) is this?
static inline uint64
r_mhartid()
{
  uint64 x;
  asm volatile("csrr %0, mhartid" : "=r" (x) );
    80000034:	f14027f3          	csrr	a5,mhartid
  // each CPU has a separate source of timer interrupts.
  int id = r_mhartid();
    80000038:	0007859b          	sext.w	a1,a5

  // ask the CLINT for a timer interrupt.
  int interval = 1000000; // cycles; about 1/10th second in qemu.
  *(uint64*)CLINT_MTIMECMP(id) = *(uint64*)CLINT_MTIME + interval;
    8000003c:	0037979b          	sllw	a5,a5,0x3
    80000040:	02004737          	lui	a4,0x2004
    80000044:	00e787b3          	add	a5,a5,a4
    80000048:	0200c737          	lui	a4,0x200c
    8000004c:	ff873703          	ld	a4,-8(a4) # 200bff8 <_entry-0x7dff4008>
    80000050:	000f4637          	lui	a2,0xf4
    80000054:	24060613          	add	a2,a2,576 # f4240 <_entry-0x7ff0bdc0>
    80000058:	00c70733          	add	a4,a4,a2
    8000005c:	00e7b023          	sd	a4,0(a5)

  // prepare information in scratch[] for timervec.
  // scratch[0..2] : space for timervec to save registers.
  // scratch[3] : address of CLINT MTIMECMP register.
  // scratch[4] : desired interval (in cycles) between timer interrupts.
  uint64 *scratch = &timer_scratch[id][0];
    80000060:	00259693          	sll	a3,a1,0x2
    80000064:	00b686b3          	add	a3,a3,a1
    80000068:	00369693          	sll	a3,a3,0x3
    8000006c:	0000b717          	auipc	a4,0xb
    80000070:	92470713          	add	a4,a4,-1756 # 8000a990 <timer_scratch>
    80000074:	00d70733          	add	a4,a4,a3
  scratch[3] = CLINT_MTIMECMP(id);
    80000078:	00f73c23          	sd	a5,24(a4)
  scratch[4] = interval;
    8000007c:	02c73023          	sd	a2,32(a4)
}

static inline void 
w_mscratch(uint64 x)
{
  asm volatile("csrw mscratch, %0" : : "r" (x));
    80000080:	34071073          	csrw	mscratch,a4
  asm volatile("csrw mtvec, %0" : : "r" (x));
    80000084:	00008797          	auipc	a5,0x8
    80000088:	e2c78793          	add	a5,a5,-468 # 80007eb0 <timervec>
    8000008c:	30579073          	csrw	mtvec,a5
  asm volatile("csrr %0, mstatus" : "=r" (x) );
    80000090:	300027f3          	csrr	a5,mstatus

  // set the machine-mode trap handler.
  w_mtvec((uint64)timervec);

  // enable machine-mode interrupts.
  w_mstatus(r_mstatus() | MSTATUS_MIE);
    80000094:	0087e793          	or	a5,a5,8
  asm volatile("csrw mstatus, %0" : : "r" (x));
    80000098:	30079073          	csrw	mstatus,a5
  asm volatile("csrr %0, mie" : "=r" (x) );
    8000009c:	304027f3          	csrr	a5,mie

  // enable machine-mode timer interrupts.
  w_mie(r_mie() | MIE_MTIE);
    800000a0:	0807e793          	or	a5,a5,128
  asm volatile("csrw mie, %0" : : "r" (x));
    800000a4:	30479073          	csrw	mie,a5
}
    800000a8:	00813403          	ld	s0,8(sp)
    800000ac:	01010113          	add	sp,sp,16
    800000b0:	00008067          	ret

00000000800000b4 <start>:
{
    800000b4:	ff010113          	add	sp,sp,-16
    800000b8:	00113423          	sd	ra,8(sp)
    800000bc:	00813023          	sd	s0,0(sp)
    800000c0:	01010413          	add	s0,sp,16
  asm volatile("csrr %0, mstatus" : "=r" (x) );
    800000c4:	300027f3          	csrr	a5,mstatus
  x &= ~MSTATUS_MPP_MASK;
    800000c8:	ffffe737          	lui	a4,0xffffe
    800000cc:	7ff70713          	add	a4,a4,2047 # ffffffffffffe7ff <end+0xffffffff7ffda9ff>
    800000d0:	00e7f7b3          	and	a5,a5,a4
  x |= MSTATUS_MPP_S;
    800000d4:	00001737          	lui	a4,0x1
    800000d8:	80070713          	add	a4,a4,-2048 # 800 <_entry-0x7ffff800>
    800000dc:	00e7e7b3          	or	a5,a5,a4
  asm volatile("csrw mstatus, %0" : : "r" (x));
    800000e0:	30079073          	csrw	mstatus,a5
  asm volatile("csrw mepc, %0" : : "r" (x));
    800000e4:	00001797          	auipc	a5,0x1
    800000e8:	2cc78793          	add	a5,a5,716 # 800013b0 <main>
    800000ec:	34179073          	csrw	mepc,a5
  asm volatile("csrw satp, %0" : : "r" (x));
    800000f0:	00000793          	li	a5,0
    800000f4:	18079073          	csrw	satp,a5
  asm volatile("csrw medeleg, %0" : : "r" (x));
    800000f8:	000107b7          	lui	a5,0x10
    800000fc:	fff78793          	add	a5,a5,-1 # ffff <_entry-0x7fff0001>
    80000100:	30279073          	csrw	medeleg,a5
  asm volatile("csrw mideleg, %0" : : "r" (x));
    80000104:	30379073          	csrw	mideleg,a5
  asm volatile("csrr %0, sie" : "=r" (x) );
    80000108:	104027f3          	csrr	a5,sie
  w_sie(r_sie() | SIE_SEIE | SIE_STIE | SIE_SSIE);
    8000010c:	2227e793          	or	a5,a5,546
  asm volatile("csrw sie, %0" : : "r" (x));
    80000110:	10479073          	csrw	sie,a5
  asm volatile("csrw pmpaddr0, %0" : : "r" (x));
    80000114:	fff00793          	li	a5,-1
    80000118:	00a7d793          	srl	a5,a5,0xa
    8000011c:	3b079073          	csrw	pmpaddr0,a5
  asm volatile("csrw pmpcfg0, %0" : : "r" (x));
    80000120:	00f00793          	li	a5,15
    80000124:	3a079073          	csrw	pmpcfg0,a5
  timerinit();
    80000128:	00000097          	auipc	ra,0x0
    8000012c:	f00080e7          	jalr	-256(ra) # 80000028 <timerinit>
  asm volatile("csrr %0, mhartid" : "=r" (x) );
    80000130:	f14027f3          	csrr	a5,mhartid
  w_tp(id);
    80000134:	0007879b          	sext.w	a5,a5
}

static inline void 
w_tp(uint64 x)
{
  asm volatile("mv tp, %0" : : "r" (x));
    80000138:	00078213          	mv	tp,a5
  asm volatile("mret");
    8000013c:	30200073          	mret
}
    80000140:	00813083          	ld	ra,8(sp)
    80000144:	00013403          	ld	s0,0(sp)
    80000148:	01010113          	add	sp,sp,16
    8000014c:	00008067          	ret

0000000080000150 <consolewrite>:
//
// user write()s to the console go here.
//
int
consolewrite(int user_src, uint64 src, int n)
{
    80000150:	fb010113          	add	sp,sp,-80
    80000154:	04113423          	sd	ra,72(sp)
    80000158:	04813023          	sd	s0,64(sp)
    8000015c:	02913c23          	sd	s1,56(sp)
    80000160:	03213823          	sd	s2,48(sp)
    80000164:	03313423          	sd	s3,40(sp)
    80000168:	03413023          	sd	s4,32(sp)
    8000016c:	01513c23          	sd	s5,24(sp)
    80000170:	05010413          	add	s0,sp,80
  int i;

  for(i = 0; i < n; i++){
    80000174:	06c05c63          	blez	a2,800001ec <consolewrite+0x9c>
    80000178:	00050a13          	mv	s4,a0
    8000017c:	00058493          	mv	s1,a1
    80000180:	00060993          	mv	s3,a2
    80000184:	00000913          	li	s2,0
    char c;
    if(either_copyin(&c, user_src, src+i, 1) == -1)
    80000188:	fff00a93          	li	s5,-1
    8000018c:	00100693          	li	a3,1
    80000190:	00048613          	mv	a2,s1
    80000194:	000a0593          	mv	a1,s4
    80000198:	fbf40513          	add	a0,s0,-65
    8000019c:	00003097          	auipc	ra,0x3
    800001a0:	228080e7          	jalr	552(ra) # 800033c4 <either_copyin>
    800001a4:	03550063          	beq	a0,s5,800001c4 <consolewrite+0x74>
      break;
    uartputc(c);
    800001a8:	fbf44503          	lbu	a0,-65(s0)
    800001ac:	00001097          	auipc	ra,0x1
    800001b0:	9b4080e7          	jalr	-1612(ra) # 80000b60 <uartputc>
  for(i = 0; i < n; i++){
    800001b4:	0019091b          	addw	s2,s2,1
    800001b8:	00148493          	add	s1,s1,1
    800001bc:	fd2998e3          	bne	s3,s2,8000018c <consolewrite+0x3c>
    800001c0:	00098913          	mv	s2,s3
  }

  return i;
}
    800001c4:	00090513          	mv	a0,s2
    800001c8:	04813083          	ld	ra,72(sp)
    800001cc:	04013403          	ld	s0,64(sp)
    800001d0:	03813483          	ld	s1,56(sp)
    800001d4:	03013903          	ld	s2,48(sp)
    800001d8:	02813983          	ld	s3,40(sp)
    800001dc:	02013a03          	ld	s4,32(sp)
    800001e0:	01813a83          	ld	s5,24(sp)
    800001e4:	05010113          	add	sp,sp,80
    800001e8:	00008067          	ret
  for(i = 0; i < n; i++){
    800001ec:	00000913          	li	s2,0
    800001f0:	fd5ff06f          	j	800001c4 <consolewrite+0x74>

00000000800001f4 <consoleread>:
// user_dist indicates whether dst is a user
// or kernel address.
//
int
consoleread(int user_dst, uint64 dst, int n)
{
    800001f4:	fa010113          	add	sp,sp,-96
    800001f8:	04113c23          	sd	ra,88(sp)
    800001fc:	04813823          	sd	s0,80(sp)
    80000200:	04913423          	sd	s1,72(sp)
    80000204:	05213023          	sd	s2,64(sp)
    80000208:	03313c23          	sd	s3,56(sp)
    8000020c:	03413823          	sd	s4,48(sp)
    80000210:	03513423          	sd	s5,40(sp)
    80000214:	03613023          	sd	s6,32(sp)
    80000218:	01713c23          	sd	s7,24(sp)
    8000021c:	06010413          	add	s0,sp,96
    80000220:	00050a93          	mv	s5,a0
    80000224:	00058a13          	mv	s4,a1
    80000228:	00060993          	mv	s3,a2
  uint target;
  int c;
  char cbuf;

  target = n;
    8000022c:	00060b1b          	sext.w	s6,a2
  acquire(&cons.lock);
    80000230:	00013517          	auipc	a0,0x13
    80000234:	8a050513          	add	a0,a0,-1888 # 80012ad0 <cons>
    80000238:	00001097          	auipc	ra,0x1
    8000023c:	d8c080e7          	jalr	-628(ra) # 80000fc4 <acquire>
  while(n > 0){
    // wait until interrupt handler has put some
    // input into cons.buffer.
    while(cons.r == cons.w){
    80000240:	00013497          	auipc	s1,0x13
    80000244:	89048493          	add	s1,s1,-1904 # 80012ad0 <cons>
      if(killed(myproc())){
        release(&cons.lock);
        return -1;
      }
      sleep(&cons.r, &cons.lock);
    80000248:	00013917          	auipc	s2,0x13
    8000024c:	92090913          	add	s2,s2,-1760 # 80012b68 <cons+0x98>
  while(n > 0){
    80000250:	09305e63          	blez	s3,800002ec <consoleread+0xf8>
    while(cons.r == cons.w){
    80000254:	0984a783          	lw	a5,152(s1)
    80000258:	09c4a703          	lw	a4,156(s1)
    8000025c:	02f71a63          	bne	a4,a5,80000290 <consoleread+0x9c>
      if(killed(myproc())){
    80000260:	00002097          	auipc	ra,0x2
    80000264:	1f4080e7          	jalr	500(ra) # 80002454 <myproc>
    80000268:	00003097          	auipc	ra,0x3
    8000026c:	ee4080e7          	jalr	-284(ra) # 8000314c <killed>
    80000270:	08051a63          	bnez	a0,80000304 <consoleread+0x110>
      sleep(&cons.r, &cons.lock);
    80000274:	00048593          	mv	a1,s1
    80000278:	00090513          	mv	a0,s2
    8000027c:	00003097          	auipc	ra,0x3
    80000280:	b20080e7          	jalr	-1248(ra) # 80002d9c <sleep>
    while(cons.r == cons.w){
    80000284:	0984a783          	lw	a5,152(s1)
    80000288:	09c4a703          	lw	a4,156(s1)
    8000028c:	fcf70ae3          	beq	a4,a5,80000260 <consoleread+0x6c>
    }

    c = cons.buf[cons.r++ % INPUT_BUF_SIZE];
    80000290:	00013717          	auipc	a4,0x13
    80000294:	84070713          	add	a4,a4,-1984 # 80012ad0 <cons>
    80000298:	0017869b          	addw	a3,a5,1
    8000029c:	08d72c23          	sw	a3,152(a4)
    800002a0:	07f7f693          	and	a3,a5,127
    800002a4:	00d70733          	add	a4,a4,a3
    800002a8:	01874703          	lbu	a4,24(a4)
    800002ac:	00070b9b          	sext.w	s7,a4

    if(c == C('D')){  // end-of-file
    800002b0:	00400693          	li	a3,4
    800002b4:	08db8863          	beq	s7,a3,80000344 <consoleread+0x150>
      }
      break;
    }

    // copy the input byte to the user-space buffer.
    cbuf = c;
    800002b8:	fae407a3          	sb	a4,-81(s0)
    if(either_copyout(user_dst, dst, &cbuf, 1) == -1)
    800002bc:	00100693          	li	a3,1
    800002c0:	faf40613          	add	a2,s0,-81
    800002c4:	000a0593          	mv	a1,s4
    800002c8:	000a8513          	mv	a0,s5
    800002cc:	00003097          	auipc	ra,0x3
    800002d0:	068080e7          	jalr	104(ra) # 80003334 <either_copyout>
    800002d4:	fff00793          	li	a5,-1
    800002d8:	00f50a63          	beq	a0,a5,800002ec <consoleread+0xf8>
      break;

    dst++;
    800002dc:	001a0a13          	add	s4,s4,1
    --n;
    800002e0:	fff9899b          	addw	s3,s3,-1

    if(c == '\n'){
    800002e4:	00a00793          	li	a5,10
    800002e8:	f6fb94e3          	bne	s7,a5,80000250 <consoleread+0x5c>
      // a whole line has arrived, return to
      // the user-level read().
      break;
    }
  }
  release(&cons.lock);
    800002ec:	00012517          	auipc	a0,0x12
    800002f0:	7e450513          	add	a0,a0,2020 # 80012ad0 <cons>
    800002f4:	00001097          	auipc	ra,0x1
    800002f8:	dc8080e7          	jalr	-568(ra) # 800010bc <release>

  return target - n;
    800002fc:	413b053b          	subw	a0,s6,s3
    80000300:	0180006f          	j	80000318 <consoleread+0x124>
        release(&cons.lock);
    80000304:	00012517          	auipc	a0,0x12
    80000308:	7cc50513          	add	a0,a0,1996 # 80012ad0 <cons>
    8000030c:	00001097          	auipc	ra,0x1
    80000310:	db0080e7          	jalr	-592(ra) # 800010bc <release>
        return -1;
    80000314:	fff00513          	li	a0,-1
}
    80000318:	05813083          	ld	ra,88(sp)
    8000031c:	05013403          	ld	s0,80(sp)
    80000320:	04813483          	ld	s1,72(sp)
    80000324:	04013903          	ld	s2,64(sp)
    80000328:	03813983          	ld	s3,56(sp)
    8000032c:	03013a03          	ld	s4,48(sp)
    80000330:	02813a83          	ld	s5,40(sp)
    80000334:	02013b03          	ld	s6,32(sp)
    80000338:	01813b83          	ld	s7,24(sp)
    8000033c:	06010113          	add	sp,sp,96
    80000340:	00008067          	ret
      if(n < target){
    80000344:	0009871b          	sext.w	a4,s3
    80000348:	fb6772e3          	bgeu	a4,s6,800002ec <consoleread+0xf8>
        cons.r--;
    8000034c:	00013717          	auipc	a4,0x13
    80000350:	80f72e23          	sw	a5,-2020(a4) # 80012b68 <cons+0x98>
    80000354:	f99ff06f          	j	800002ec <consoleread+0xf8>

0000000080000358 <consputc>:
{
    80000358:	ff010113          	add	sp,sp,-16
    8000035c:	00113423          	sd	ra,8(sp)
    80000360:	00813023          	sd	s0,0(sp)
    80000364:	01010413          	add	s0,sp,16
  if(c == BACKSPACE){
    80000368:	10000793          	li	a5,256
    8000036c:	00f50e63          	beq	a0,a5,80000388 <consputc+0x30>
    uartputc_sync(c);
    80000370:	00000097          	auipc	ra,0x0
    80000374:	6d0080e7          	jalr	1744(ra) # 80000a40 <uartputc_sync>
}
    80000378:	00813083          	ld	ra,8(sp)
    8000037c:	00013403          	ld	s0,0(sp)
    80000380:	01010113          	add	sp,sp,16
    80000384:	00008067          	ret
    uartputc_sync('\b'); uartputc_sync(' '); uartputc_sync('\b');
    80000388:	00800513          	li	a0,8
    8000038c:	00000097          	auipc	ra,0x0
    80000390:	6b4080e7          	jalr	1716(ra) # 80000a40 <uartputc_sync>
    80000394:	02000513          	li	a0,32
    80000398:	00000097          	auipc	ra,0x0
    8000039c:	6a8080e7          	jalr	1704(ra) # 80000a40 <uartputc_sync>
    800003a0:	00800513          	li	a0,8
    800003a4:	00000097          	auipc	ra,0x0
    800003a8:	69c080e7          	jalr	1692(ra) # 80000a40 <uartputc_sync>
    800003ac:	fcdff06f          	j	80000378 <consputc+0x20>

00000000800003b0 <consoleintr>:
// do erase/kill processing, append to cons.buf,
// wake up consoleread() if a whole line has arrived.
//
void
consoleintr(int c)
{
    800003b0:	fe010113          	add	sp,sp,-32
    800003b4:	00113c23          	sd	ra,24(sp)
    800003b8:	00813823          	sd	s0,16(sp)
    800003bc:	00913423          	sd	s1,8(sp)
    800003c0:	01213023          	sd	s2,0(sp)
    800003c4:	02010413          	add	s0,sp,32
    800003c8:	00050493          	mv	s1,a0
  acquire(&cons.lock);
    800003cc:	00012517          	auipc	a0,0x12
    800003d0:	70450513          	add	a0,a0,1796 # 80012ad0 <cons>
    800003d4:	00001097          	auipc	ra,0x1
    800003d8:	bf0080e7          	jalr	-1040(ra) # 80000fc4 <acquire>

  switch(c){
    800003dc:	01500793          	li	a5,21
    800003e0:	0cf48663          	beq	s1,a5,800004ac <consoleintr+0xfc>
    800003e4:	0497c263          	blt	a5,s1,80000428 <consoleintr+0x78>
    800003e8:	00800793          	li	a5,8
    800003ec:	10f48a63          	beq	s1,a5,80000500 <consoleintr+0x150>
    800003f0:	01000793          	li	a5,16
    800003f4:	12f49e63          	bne	s1,a5,80000530 <consoleintr+0x180>
  case C('P'):  // Print process list.
    procdump();
    800003f8:	00003097          	auipc	ra,0x3
    800003fc:	05c080e7          	jalr	92(ra) # 80003454 <procdump>
      }
    }
    break;
  }
  
  release(&cons.lock);
    80000400:	00012517          	auipc	a0,0x12
    80000404:	6d050513          	add	a0,a0,1744 # 80012ad0 <cons>
    80000408:	00001097          	auipc	ra,0x1
    8000040c:	cb4080e7          	jalr	-844(ra) # 800010bc <release>
}
    80000410:	01813083          	ld	ra,24(sp)
    80000414:	01013403          	ld	s0,16(sp)
    80000418:	00813483          	ld	s1,8(sp)
    8000041c:	00013903          	ld	s2,0(sp)
    80000420:	02010113          	add	sp,sp,32
    80000424:	00008067          	ret
  switch(c){
    80000428:	07f00793          	li	a5,127
    8000042c:	0cf48a63          	beq	s1,a5,80000500 <consoleintr+0x150>
    if(c != 0 && cons.e-cons.r < INPUT_BUF_SIZE){
    80000430:	00012717          	auipc	a4,0x12
    80000434:	6a070713          	add	a4,a4,1696 # 80012ad0 <cons>
    80000438:	0a072783          	lw	a5,160(a4)
    8000043c:	09872703          	lw	a4,152(a4)
    80000440:	40e787bb          	subw	a5,a5,a4
    80000444:	07f00713          	li	a4,127
    80000448:	faf76ce3          	bltu	a4,a5,80000400 <consoleintr+0x50>
      c = (c == '\r') ? '\n' : c;
    8000044c:	00d00793          	li	a5,13
    80000450:	0ef48463          	beq	s1,a5,80000538 <consoleintr+0x188>
      consputc(c);
    80000454:	00048513          	mv	a0,s1
    80000458:	00000097          	auipc	ra,0x0
    8000045c:	f00080e7          	jalr	-256(ra) # 80000358 <consputc>
      cons.buf[cons.e++ % INPUT_BUF_SIZE] = c;
    80000460:	00012797          	auipc	a5,0x12
    80000464:	67078793          	add	a5,a5,1648 # 80012ad0 <cons>
    80000468:	0a07a683          	lw	a3,160(a5)
    8000046c:	0016871b          	addw	a4,a3,1
    80000470:	0007061b          	sext.w	a2,a4
    80000474:	0ae7a023          	sw	a4,160(a5)
    80000478:	07f6f693          	and	a3,a3,127
    8000047c:	00d787b3          	add	a5,a5,a3
    80000480:	00978c23          	sb	s1,24(a5)
      if(c == '\n' || c == C('D') || cons.e-cons.r == INPUT_BUF_SIZE){
    80000484:	00a00793          	li	a5,10
    80000488:	0ef48263          	beq	s1,a5,8000056c <consoleintr+0x1bc>
    8000048c:	00400793          	li	a5,4
    80000490:	0cf48e63          	beq	s1,a5,8000056c <consoleintr+0x1bc>
    80000494:	00012797          	auipc	a5,0x12
    80000498:	6d47a783          	lw	a5,1748(a5) # 80012b68 <cons+0x98>
    8000049c:	40f7073b          	subw	a4,a4,a5
    800004a0:	08000793          	li	a5,128
    800004a4:	f4f71ee3          	bne	a4,a5,80000400 <consoleintr+0x50>
    800004a8:	0c40006f          	j	8000056c <consoleintr+0x1bc>
    while(cons.e != cons.w &&
    800004ac:	00012717          	auipc	a4,0x12
    800004b0:	62470713          	add	a4,a4,1572 # 80012ad0 <cons>
    800004b4:	0a072783          	lw	a5,160(a4)
    800004b8:	09c72703          	lw	a4,156(a4)
          cons.buf[(cons.e-1) % INPUT_BUF_SIZE] != '\n'){
    800004bc:	00012497          	auipc	s1,0x12
    800004c0:	61448493          	add	s1,s1,1556 # 80012ad0 <cons>
    while(cons.e != cons.w &&
    800004c4:	00a00913          	li	s2,10
    800004c8:	f2f70ce3          	beq	a4,a5,80000400 <consoleintr+0x50>
          cons.buf[(cons.e-1) % INPUT_BUF_SIZE] != '\n'){
    800004cc:	fff7879b          	addw	a5,a5,-1
    800004d0:	07f7f713          	and	a4,a5,127
    800004d4:	00e48733          	add	a4,s1,a4
    while(cons.e != cons.w &&
    800004d8:	01874703          	lbu	a4,24(a4)
    800004dc:	f32702e3          	beq	a4,s2,80000400 <consoleintr+0x50>
      cons.e--;
    800004e0:	0af4a023          	sw	a5,160(s1)
      consputc(BACKSPACE);
    800004e4:	10000513          	li	a0,256
    800004e8:	00000097          	auipc	ra,0x0
    800004ec:	e70080e7          	jalr	-400(ra) # 80000358 <consputc>
    while(cons.e != cons.w &&
    800004f0:	0a04a783          	lw	a5,160(s1)
    800004f4:	09c4a703          	lw	a4,156(s1)
    800004f8:	fcf71ae3          	bne	a4,a5,800004cc <consoleintr+0x11c>
    800004fc:	f05ff06f          	j	80000400 <consoleintr+0x50>
    if(cons.e != cons.w){
    80000500:	00012717          	auipc	a4,0x12
    80000504:	5d070713          	add	a4,a4,1488 # 80012ad0 <cons>
    80000508:	0a072783          	lw	a5,160(a4)
    8000050c:	09c72703          	lw	a4,156(a4)
    80000510:	eef708e3          	beq	a4,a5,80000400 <consoleintr+0x50>
      cons.e--;
    80000514:	fff7879b          	addw	a5,a5,-1
    80000518:	00012717          	auipc	a4,0x12
    8000051c:	64f72c23          	sw	a5,1624(a4) # 80012b70 <cons+0xa0>
      consputc(BACKSPACE);
    80000520:	10000513          	li	a0,256
    80000524:	00000097          	auipc	ra,0x0
    80000528:	e34080e7          	jalr	-460(ra) # 80000358 <consputc>
    8000052c:	ed5ff06f          	j	80000400 <consoleintr+0x50>
    if(c != 0 && cons.e-cons.r < INPUT_BUF_SIZE){
    80000530:	ec0488e3          	beqz	s1,80000400 <consoleintr+0x50>
    80000534:	efdff06f          	j	80000430 <consoleintr+0x80>
      consputc(c);
    80000538:	00a00513          	li	a0,10
    8000053c:	00000097          	auipc	ra,0x0
    80000540:	e1c080e7          	jalr	-484(ra) # 80000358 <consputc>
      cons.buf[cons.e++ % INPUT_BUF_SIZE] = c;
    80000544:	00012797          	auipc	a5,0x12
    80000548:	58c78793          	add	a5,a5,1420 # 80012ad0 <cons>
    8000054c:	0a07a703          	lw	a4,160(a5)
    80000550:	0017069b          	addw	a3,a4,1
    80000554:	0006861b          	sext.w	a2,a3
    80000558:	0ad7a023          	sw	a3,160(a5)
    8000055c:	07f77713          	and	a4,a4,127
    80000560:	00e787b3          	add	a5,a5,a4
    80000564:	00a00713          	li	a4,10
    80000568:	00e78c23          	sb	a4,24(a5)
        cons.w = cons.e;
    8000056c:	00012797          	auipc	a5,0x12
    80000570:	60c7a023          	sw	a2,1536(a5) # 80012b6c <cons+0x9c>
        wakeup(&cons.r);
    80000574:	00012517          	auipc	a0,0x12
    80000578:	5f450513          	add	a0,a0,1524 # 80012b68 <cons+0x98>
    8000057c:	00003097          	auipc	ra,0x3
    80000580:	8b0080e7          	jalr	-1872(ra) # 80002e2c <wakeup>
    80000584:	e7dff06f          	j	80000400 <consoleintr+0x50>

0000000080000588 <consoleinit>:

void
consoleinit(void)
{
    80000588:	ff010113          	add	sp,sp,-16
    8000058c:	00113423          	sd	ra,8(sp)
    80000590:	00813023          	sd	s0,0(sp)
    80000594:	01010413          	add	s0,sp,16
  initlock(&cons.lock, "cons");
    80000598:	0000a597          	auipc	a1,0xa
    8000059c:	a7858593          	add	a1,a1,-1416 # 8000a010 <etext+0x10>
    800005a0:	00012517          	auipc	a0,0x12
    800005a4:	53050513          	add	a0,a0,1328 # 80012ad0 <cons>
    800005a8:	00001097          	auipc	ra,0x1
    800005ac:	938080e7          	jalr	-1736(ra) # 80000ee0 <initlock>

  uartinit();
    800005b0:	00000097          	auipc	ra,0x0
    800005b4:	42c080e7          	jalr	1068(ra) # 800009dc <uartinit>

  // connect read and write system calls
  // to consoleread and consolewrite.
  devsw[CONSOLE].read = consoleread;
    800005b8:	00022797          	auipc	a5,0x22
    800005bc:	6b078793          	add	a5,a5,1712 # 80022c68 <devsw>
    800005c0:	00000717          	auipc	a4,0x0
    800005c4:	c3470713          	add	a4,a4,-972 # 800001f4 <consoleread>
    800005c8:	00e7b823          	sd	a4,16(a5)
  devsw[CONSOLE].write = consolewrite;
    800005cc:	00000717          	auipc	a4,0x0
    800005d0:	b8470713          	add	a4,a4,-1148 # 80000150 <consolewrite>
    800005d4:	00e7bc23          	sd	a4,24(a5)
}
    800005d8:	00813083          	ld	ra,8(sp)
    800005dc:	00013403          	ld	s0,0(sp)
    800005e0:	01010113          	add	sp,sp,16
    800005e4:	00008067          	ret

00000000800005e8 <printint>:

static char digits[] = "0123456789abcdef";

static void
printint(int xx, int base, int sign)
{
    800005e8:	fd010113          	add	sp,sp,-48
    800005ec:	02113423          	sd	ra,40(sp)
    800005f0:	02813023          	sd	s0,32(sp)
    800005f4:	00913c23          	sd	s1,24(sp)
    800005f8:	01213823          	sd	s2,16(sp)
    800005fc:	03010413          	add	s0,sp,48
  char buf[16];
  int i;
  uint x;

  if(sign && (sign = xx < 0))
    80000600:	00060463          	beqz	a2,80000608 <printint+0x20>
    80000604:	0a054c63          	bltz	a0,800006bc <printint+0xd4>
    x = -xx;
  else
    x = xx;
    80000608:	0005051b          	sext.w	a0,a0
    8000060c:	00000893          	li	a7,0
    80000610:	fd040693          	add	a3,s0,-48

  i = 0;
    80000614:	00000713          	li	a4,0
  do {
    buf[i++] = digits[x % base];
    80000618:	0005859b          	sext.w	a1,a1
    8000061c:	0000a617          	auipc	a2,0xa
    80000620:	a2460613          	add	a2,a2,-1500 # 8000a040 <digits>
    80000624:	00070813          	mv	a6,a4
    80000628:	0017071b          	addw	a4,a4,1
    8000062c:	02b577bb          	remuw	a5,a0,a1
    80000630:	02079793          	sll	a5,a5,0x20
    80000634:	0207d793          	srl	a5,a5,0x20
    80000638:	00f607b3          	add	a5,a2,a5
    8000063c:	0007c783          	lbu	a5,0(a5)
    80000640:	00f68023          	sb	a5,0(a3)
  } while((x /= base) != 0);
    80000644:	0005079b          	sext.w	a5,a0
    80000648:	02b5553b          	divuw	a0,a0,a1
    8000064c:	00168693          	add	a3,a3,1
    80000650:	fcb7fae3          	bgeu	a5,a1,80000624 <printint+0x3c>

  if(sign)
    80000654:	00088c63          	beqz	a7,8000066c <printint+0x84>
    buf[i++] = '-';
    80000658:	fe070793          	add	a5,a4,-32
    8000065c:	00878733          	add	a4,a5,s0
    80000660:	02d00793          	li	a5,45
    80000664:	fef70823          	sb	a5,-16(a4)
    80000668:	0028071b          	addw	a4,a6,2

  while(--i >= 0)
    8000066c:	02e05c63          	blez	a4,800006a4 <printint+0xbc>
    80000670:	fd040793          	add	a5,s0,-48
    80000674:	00e784b3          	add	s1,a5,a4
    80000678:	fff78913          	add	s2,a5,-1
    8000067c:	00e90933          	add	s2,s2,a4
    80000680:	fff7071b          	addw	a4,a4,-1
    80000684:	02071713          	sll	a4,a4,0x20
    80000688:	02075713          	srl	a4,a4,0x20
    8000068c:	40e90933          	sub	s2,s2,a4
    consputc(buf[i]);
    80000690:	fff4c503          	lbu	a0,-1(s1)
    80000694:	00000097          	auipc	ra,0x0
    80000698:	cc4080e7          	jalr	-828(ra) # 80000358 <consputc>
  while(--i >= 0)
    8000069c:	fff48493          	add	s1,s1,-1
    800006a0:	ff2498e3          	bne	s1,s2,80000690 <printint+0xa8>
}
    800006a4:	02813083          	ld	ra,40(sp)
    800006a8:	02013403          	ld	s0,32(sp)
    800006ac:	01813483          	ld	s1,24(sp)
    800006b0:	01013903          	ld	s2,16(sp)
    800006b4:	03010113          	add	sp,sp,48
    800006b8:	00008067          	ret
    x = -xx;
    800006bc:	40a0053b          	negw	a0,a0
  if(sign && (sign = xx < 0))
    800006c0:	00100893          	li	a7,1
    x = -xx;
    800006c4:	f4dff06f          	j	80000610 <printint+0x28>

00000000800006c8 <panic>:
    release(&pr.lock);
}

void
panic(char *s)
{
    800006c8:	fe010113          	add	sp,sp,-32
    800006cc:	00113c23          	sd	ra,24(sp)
    800006d0:	00813823          	sd	s0,16(sp)
    800006d4:	00913423          	sd	s1,8(sp)
    800006d8:	02010413          	add	s0,sp,32
    800006dc:	00050493          	mv	s1,a0
  pr.locking = 0;
    800006e0:	00012797          	auipc	a5,0x12
    800006e4:	4a07a823          	sw	zero,1200(a5) # 80012b90 <pr+0x18>
  printf("panic: ");
    800006e8:	0000a517          	auipc	a0,0xa
    800006ec:	93050513          	add	a0,a0,-1744 # 8000a018 <etext+0x18>
    800006f0:	00000097          	auipc	ra,0x0
    800006f4:	034080e7          	jalr	52(ra) # 80000724 <printf>
  printf(s);
    800006f8:	00048513          	mv	a0,s1
    800006fc:	00000097          	auipc	ra,0x0
    80000700:	028080e7          	jalr	40(ra) # 80000724 <printf>
  printf("\n");
    80000704:	0000a517          	auipc	a0,0xa
    80000708:	dac50513          	add	a0,a0,-596 # 8000a4b0 <states.0+0x130>
    8000070c:	00000097          	auipc	ra,0x0
    80000710:	018080e7          	jalr	24(ra) # 80000724 <printf>
  panicked = 1; // freeze uart output from other CPUs
    80000714:	00100793          	li	a5,1
    80000718:	0000a717          	auipc	a4,0xa
    8000071c:	22f72c23          	sw	a5,568(a4) # 8000a950 <panicked>
  for(;;)
    80000720:	0000006f          	j	80000720 <panic+0x58>

0000000080000724 <printf>:
{
    80000724:	f4010113          	add	sp,sp,-192
    80000728:	06113c23          	sd	ra,120(sp)
    8000072c:	06813823          	sd	s0,112(sp)
    80000730:	06913423          	sd	s1,104(sp)
    80000734:	07213023          	sd	s2,96(sp)
    80000738:	05313c23          	sd	s3,88(sp)
    8000073c:	05413823          	sd	s4,80(sp)
    80000740:	05513423          	sd	s5,72(sp)
    80000744:	05613023          	sd	s6,64(sp)
    80000748:	03713c23          	sd	s7,56(sp)
    8000074c:	03813823          	sd	s8,48(sp)
    80000750:	03913423          	sd	s9,40(sp)
    80000754:	03a13023          	sd	s10,32(sp)
    80000758:	01b13c23          	sd	s11,24(sp)
    8000075c:	08010413          	add	s0,sp,128
    80000760:	00050a13          	mv	s4,a0
    80000764:	00b43423          	sd	a1,8(s0)
    80000768:	00c43823          	sd	a2,16(s0)
    8000076c:	00d43c23          	sd	a3,24(s0)
    80000770:	02e43023          	sd	a4,32(s0)
    80000774:	02f43423          	sd	a5,40(s0)
    80000778:	03043823          	sd	a6,48(s0)
    8000077c:	03143c23          	sd	a7,56(s0)
  locking = pr.locking;
    80000780:	00012d97          	auipc	s11,0x12
    80000784:	410dad83          	lw	s11,1040(s11) # 80012b90 <pr+0x18>
  if(locking)
    80000788:	020d9e63          	bnez	s11,800007c4 <printf+0xa0>
  if (fmt == 0)
    8000078c:	040a0663          	beqz	s4,800007d8 <printf+0xb4>
  va_start(ap, fmt);
    80000790:	00840793          	add	a5,s0,8
    80000794:	f8f43423          	sd	a5,-120(s0)
  for(i = 0; (c = fmt[i] & 0xff) != 0; i++){
    80000798:	000a4503          	lbu	a0,0(s4)
    8000079c:	1a050063          	beqz	a0,8000093c <printf+0x218>
    800007a0:	00000993          	li	s3,0
    if(c != '%'){
    800007a4:	02500a93          	li	s5,37
    switch(c){
    800007a8:	07000b93          	li	s7,112
  consputc('x');
    800007ac:	01000d13          	li	s10,16
    consputc(digits[x >> (sizeof(uint64) * 8 - 4)]);
    800007b0:	0000ab17          	auipc	s6,0xa
    800007b4:	890b0b13          	add	s6,s6,-1904 # 8000a040 <digits>
    switch(c){
    800007b8:	07300c93          	li	s9,115
    800007bc:	06400c13          	li	s8,100
    800007c0:	0400006f          	j	80000800 <printf+0xdc>
    acquire(&pr.lock);
    800007c4:	00012517          	auipc	a0,0x12
    800007c8:	3b450513          	add	a0,a0,948 # 80012b78 <pr>
    800007cc:	00000097          	auipc	ra,0x0
    800007d0:	7f8080e7          	jalr	2040(ra) # 80000fc4 <acquire>
    800007d4:	fb9ff06f          	j	8000078c <printf+0x68>
    panic("null fmt");
    800007d8:	0000a517          	auipc	a0,0xa
    800007dc:	85050513          	add	a0,a0,-1968 # 8000a028 <etext+0x28>
    800007e0:	00000097          	auipc	ra,0x0
    800007e4:	ee8080e7          	jalr	-280(ra) # 800006c8 <panic>
      consputc(c);
    800007e8:	00000097          	auipc	ra,0x0
    800007ec:	b70080e7          	jalr	-1168(ra) # 80000358 <consputc>
  for(i = 0; (c = fmt[i] & 0xff) != 0; i++){
    800007f0:	0019899b          	addw	s3,s3,1
    800007f4:	013a07b3          	add	a5,s4,s3
    800007f8:	0007c503          	lbu	a0,0(a5)
    800007fc:	14050063          	beqz	a0,8000093c <printf+0x218>
    if(c != '%'){
    80000800:	ff5514e3          	bne	a0,s5,800007e8 <printf+0xc4>
    c = fmt[++i] & 0xff;
    80000804:	0019899b          	addw	s3,s3,1
    80000808:	013a07b3          	add	a5,s4,s3
    8000080c:	0007c783          	lbu	a5,0(a5)
    80000810:	0007849b          	sext.w	s1,a5
    if(c == 0)
    80000814:	12078463          	beqz	a5,8000093c <printf+0x218>
    switch(c){
    80000818:	07778263          	beq	a5,s7,8000087c <printf+0x158>
    8000081c:	02fbfa63          	bgeu	s7,a5,80000850 <printf+0x12c>
    80000820:	0b978663          	beq	a5,s9,800008cc <printf+0x1a8>
    80000824:	07800713          	li	a4,120
    80000828:	0ee79c63          	bne	a5,a4,80000920 <printf+0x1fc>
      printint(va_arg(ap, int), 16, 1);
    8000082c:	f8843783          	ld	a5,-120(s0)
    80000830:	00878713          	add	a4,a5,8
    80000834:	f8e43423          	sd	a4,-120(s0)
    80000838:	00100613          	li	a2,1
    8000083c:	000d0593          	mv	a1,s10
    80000840:	0007a503          	lw	a0,0(a5)
    80000844:	00000097          	auipc	ra,0x0
    80000848:	da4080e7          	jalr	-604(ra) # 800005e8 <printint>
      break;
    8000084c:	fa5ff06f          	j	800007f0 <printf+0xcc>
    switch(c){
    80000850:	0d578063          	beq	a5,s5,80000910 <printf+0x1ec>
    80000854:	0d879663          	bne	a5,s8,80000920 <printf+0x1fc>
      printint(va_arg(ap, int), 10, 1);
    80000858:	f8843783          	ld	a5,-120(s0)
    8000085c:	00878713          	add	a4,a5,8
    80000860:	f8e43423          	sd	a4,-120(s0)
    80000864:	00100613          	li	a2,1
    80000868:	00a00593          	li	a1,10
    8000086c:	0007a503          	lw	a0,0(a5)
    80000870:	00000097          	auipc	ra,0x0
    80000874:	d78080e7          	jalr	-648(ra) # 800005e8 <printint>
      break;
    80000878:	f79ff06f          	j	800007f0 <printf+0xcc>
      printptr(va_arg(ap, uint64));
    8000087c:	f8843783          	ld	a5,-120(s0)
    80000880:	00878713          	add	a4,a5,8
    80000884:	f8e43423          	sd	a4,-120(s0)
    80000888:	0007b903          	ld	s2,0(a5)
  consputc('0');
    8000088c:	03000513          	li	a0,48
    80000890:	00000097          	auipc	ra,0x0
    80000894:	ac8080e7          	jalr	-1336(ra) # 80000358 <consputc>
  consputc('x');
    80000898:	07800513          	li	a0,120
    8000089c:	00000097          	auipc	ra,0x0
    800008a0:	abc080e7          	jalr	-1348(ra) # 80000358 <consputc>
    800008a4:	000d0493          	mv	s1,s10
    consputc(digits[x >> (sizeof(uint64) * 8 - 4)]);
    800008a8:	03c95793          	srl	a5,s2,0x3c
    800008ac:	00fb07b3          	add	a5,s6,a5
    800008b0:	0007c503          	lbu	a0,0(a5)
    800008b4:	00000097          	auipc	ra,0x0
    800008b8:	aa4080e7          	jalr	-1372(ra) # 80000358 <consputc>
  for (i = 0; i < (sizeof(uint64) * 2); i++, x <<= 4)
    800008bc:	00491913          	sll	s2,s2,0x4
    800008c0:	fff4849b          	addw	s1,s1,-1
    800008c4:	fe0492e3          	bnez	s1,800008a8 <printf+0x184>
    800008c8:	f29ff06f          	j	800007f0 <printf+0xcc>
      if((s = va_arg(ap, char*)) == 0)
    800008cc:	f8843783          	ld	a5,-120(s0)
    800008d0:	00878713          	add	a4,a5,8
    800008d4:	f8e43423          	sd	a4,-120(s0)
    800008d8:	0007b483          	ld	s1,0(a5)
    800008dc:	02048263          	beqz	s1,80000900 <printf+0x1dc>
      for(; *s; s++)
    800008e0:	0004c503          	lbu	a0,0(s1)
    800008e4:	f00506e3          	beqz	a0,800007f0 <printf+0xcc>
        consputc(*s);
    800008e8:	00000097          	auipc	ra,0x0
    800008ec:	a70080e7          	jalr	-1424(ra) # 80000358 <consputc>
      for(; *s; s++)
    800008f0:	00148493          	add	s1,s1,1
    800008f4:	0004c503          	lbu	a0,0(s1)
    800008f8:	fe0518e3          	bnez	a0,800008e8 <printf+0x1c4>
    800008fc:	ef5ff06f          	j	800007f0 <printf+0xcc>
        s = "(null)";
    80000900:	00009497          	auipc	s1,0x9
    80000904:	72048493          	add	s1,s1,1824 # 8000a020 <etext+0x20>
      for(; *s; s++)
    80000908:	02800513          	li	a0,40
    8000090c:	fddff06f          	j	800008e8 <printf+0x1c4>
      consputc('%');
    80000910:	000a8513          	mv	a0,s5
    80000914:	00000097          	auipc	ra,0x0
    80000918:	a44080e7          	jalr	-1468(ra) # 80000358 <consputc>
      break;
    8000091c:	ed5ff06f          	j	800007f0 <printf+0xcc>
      consputc('%');
    80000920:	000a8513          	mv	a0,s5
    80000924:	00000097          	auipc	ra,0x0
    80000928:	a34080e7          	jalr	-1484(ra) # 80000358 <consputc>
      consputc(c);
    8000092c:	00048513          	mv	a0,s1
    80000930:	00000097          	auipc	ra,0x0
    80000934:	a28080e7          	jalr	-1496(ra) # 80000358 <consputc>
      break;
    80000938:	eb9ff06f          	j	800007f0 <printf+0xcc>
  if(locking)
    8000093c:	040d9063          	bnez	s11,8000097c <printf+0x258>
}
    80000940:	07813083          	ld	ra,120(sp)
    80000944:	07013403          	ld	s0,112(sp)
    80000948:	06813483          	ld	s1,104(sp)
    8000094c:	06013903          	ld	s2,96(sp)
    80000950:	05813983          	ld	s3,88(sp)
    80000954:	05013a03          	ld	s4,80(sp)
    80000958:	04813a83          	ld	s5,72(sp)
    8000095c:	04013b03          	ld	s6,64(sp)
    80000960:	03813b83          	ld	s7,56(sp)
    80000964:	03013c03          	ld	s8,48(sp)
    80000968:	02813c83          	ld	s9,40(sp)
    8000096c:	02013d03          	ld	s10,32(sp)
    80000970:	01813d83          	ld	s11,24(sp)
    80000974:	0c010113          	add	sp,sp,192
    80000978:	00008067          	ret
    release(&pr.lock);
    8000097c:	00012517          	auipc	a0,0x12
    80000980:	1fc50513          	add	a0,a0,508 # 80012b78 <pr>
    80000984:	00000097          	auipc	ra,0x0
    80000988:	738080e7          	jalr	1848(ra) # 800010bc <release>
}
    8000098c:	fb5ff06f          	j	80000940 <printf+0x21c>

0000000080000990 <printfinit>:
    ;
}

void
printfinit(void)
{
    80000990:	fe010113          	add	sp,sp,-32
    80000994:	00113c23          	sd	ra,24(sp)
    80000998:	00813823          	sd	s0,16(sp)
    8000099c:	00913423          	sd	s1,8(sp)
    800009a0:	02010413          	add	s0,sp,32
  initlock(&pr.lock, "pr");
    800009a4:	00012497          	auipc	s1,0x12
    800009a8:	1d448493          	add	s1,s1,468 # 80012b78 <pr>
    800009ac:	00009597          	auipc	a1,0x9
    800009b0:	68c58593          	add	a1,a1,1676 # 8000a038 <etext+0x38>
    800009b4:	00048513          	mv	a0,s1
    800009b8:	00000097          	auipc	ra,0x0
    800009bc:	528080e7          	jalr	1320(ra) # 80000ee0 <initlock>
  pr.locking = 1;
    800009c0:	00100793          	li	a5,1
    800009c4:	00f4ac23          	sw	a5,24(s1)
}
    800009c8:	01813083          	ld	ra,24(sp)
    800009cc:	01013403          	ld	s0,16(sp)
    800009d0:	00813483          	ld	s1,8(sp)
    800009d4:	02010113          	add	sp,sp,32
    800009d8:	00008067          	ret

00000000800009dc <uartinit>:

void uartstart();

void
uartinit(void)
{
    800009dc:	ff010113          	add	sp,sp,-16
    800009e0:	00113423          	sd	ra,8(sp)
    800009e4:	00813023          	sd	s0,0(sp)
    800009e8:	01010413          	add	s0,sp,16
  // disable interrupts.
  WriteReg(IER, 0x00);
    800009ec:	100007b7          	lui	a5,0x10000
    800009f0:	000780a3          	sb	zero,1(a5) # 10000001 <_entry-0x6fffffff>

  // special mode to set baud rate.
  WriteReg(LCR, LCR_BAUD_LATCH);
    800009f4:	f8000713          	li	a4,-128
    800009f8:	00e781a3          	sb	a4,3(a5)

  // LSB for baud rate of 38.4K.
  WriteReg(0, 0x03);
    800009fc:	00300713          	li	a4,3
    80000a00:	00e78023          	sb	a4,0(a5)

  // MSB for baud rate of 38.4K.
  WriteReg(1, 0x00);
    80000a04:	000780a3          	sb	zero,1(a5)

  // leave set-baud mode,
  // and set word length to 8 bits, no parity.
  WriteReg(LCR, LCR_EIGHT_BITS);
    80000a08:	00e781a3          	sb	a4,3(a5)

  // reset and enable FIFOs.
  WriteReg(FCR, FCR_FIFO_ENABLE | FCR_FIFO_CLEAR);
    80000a0c:	00700693          	li	a3,7
    80000a10:	00d78123          	sb	a3,2(a5)

  // enable transmit and receive interrupts.
  WriteReg(IER, IER_TX_ENABLE | IER_RX_ENABLE);
    80000a14:	00e780a3          	sb	a4,1(a5)

  initlock(&uart_tx_lock, "uart");
    80000a18:	00009597          	auipc	a1,0x9
    80000a1c:	64058593          	add	a1,a1,1600 # 8000a058 <digits+0x18>
    80000a20:	00012517          	auipc	a0,0x12
    80000a24:	17850513          	add	a0,a0,376 # 80012b98 <uart_tx_lock>
    80000a28:	00000097          	auipc	ra,0x0
    80000a2c:	4b8080e7          	jalr	1208(ra) # 80000ee0 <initlock>
}
    80000a30:	00813083          	ld	ra,8(sp)
    80000a34:	00013403          	ld	s0,0(sp)
    80000a38:	01010113          	add	sp,sp,16
    80000a3c:	00008067          	ret

0000000080000a40 <uartputc_sync>:
// use interrupts, for use by kernel printf() and
// to echo characters. it spins waiting for the uart's
// output register to be empty.
void
uartputc_sync(int c)
{
    80000a40:	fe010113          	add	sp,sp,-32
    80000a44:	00113c23          	sd	ra,24(sp)
    80000a48:	00813823          	sd	s0,16(sp)
    80000a4c:	00913423          	sd	s1,8(sp)
    80000a50:	02010413          	add	s0,sp,32
    80000a54:	00050493          	mv	s1,a0
  push_off();
    80000a58:	00000097          	auipc	ra,0x0
    80000a5c:	4f8080e7          	jalr	1272(ra) # 80000f50 <push_off>

  if(panicked){
    80000a60:	0000a797          	auipc	a5,0xa
    80000a64:	ef07a783          	lw	a5,-272(a5) # 8000a950 <panicked>
    for(;;)
      ;
  }

  // wait for Transmit Holding Empty to be set in LSR.
  while((ReadReg(LSR) & LSR_TX_IDLE) == 0)
    80000a68:	10000737          	lui	a4,0x10000
  if(panicked){
    80000a6c:	00078463          	beqz	a5,80000a74 <uartputc_sync+0x34>
    for(;;)
    80000a70:	0000006f          	j	80000a70 <uartputc_sync+0x30>
  while((ReadReg(LSR) & LSR_TX_IDLE) == 0)
    80000a74:	00574783          	lbu	a5,5(a4) # 10000005 <_entry-0x6ffffffb>
    80000a78:	0207f793          	and	a5,a5,32
    80000a7c:	fe078ce3          	beqz	a5,80000a74 <uartputc_sync+0x34>
    ;
  WriteReg(THR, c);
    80000a80:	0ff4f513          	zext.b	a0,s1
    80000a84:	100007b7          	lui	a5,0x10000
    80000a88:	00a78023          	sb	a0,0(a5) # 10000000 <_entry-0x70000000>

  pop_off();
    80000a8c:	00000097          	auipc	ra,0x0
    80000a90:	5b0080e7          	jalr	1456(ra) # 8000103c <pop_off>
}
    80000a94:	01813083          	ld	ra,24(sp)
    80000a98:	01013403          	ld	s0,16(sp)
    80000a9c:	00813483          	ld	s1,8(sp)
    80000aa0:	02010113          	add	sp,sp,32
    80000aa4:	00008067          	ret

0000000080000aa8 <uartstart>:
// called from both the top- and bottom-half.
void
uartstart()
{
  while(1){
    if(uart_tx_w == uart_tx_r){
    80000aa8:	0000a797          	auipc	a5,0xa
    80000aac:	eb07b783          	ld	a5,-336(a5) # 8000a958 <uart_tx_r>
    80000ab0:	0000a717          	auipc	a4,0xa
    80000ab4:	eb073703          	ld	a4,-336(a4) # 8000a960 <uart_tx_w>
    80000ab8:	0af70263          	beq	a4,a5,80000b5c <uartstart+0xb4>
{
    80000abc:	fc010113          	add	sp,sp,-64
    80000ac0:	02113c23          	sd	ra,56(sp)
    80000ac4:	02813823          	sd	s0,48(sp)
    80000ac8:	02913423          	sd	s1,40(sp)
    80000acc:	03213023          	sd	s2,32(sp)
    80000ad0:	01313c23          	sd	s3,24(sp)
    80000ad4:	01413823          	sd	s4,16(sp)
    80000ad8:	01513423          	sd	s5,8(sp)
    80000adc:	04010413          	add	s0,sp,64
      // transmit buffer is empty.
      return;
    }
    
    if((ReadReg(LSR) & LSR_TX_IDLE) == 0){
    80000ae0:	10000937          	lui	s2,0x10000
      // so we cannot give it another byte.
      // it will interrupt when it's ready for a new byte.
      return;
    }
    
    int c = uart_tx_buf[uart_tx_r % UART_TX_BUF_SIZE];
    80000ae4:	00012a17          	auipc	s4,0x12
    80000ae8:	0b4a0a13          	add	s4,s4,180 # 80012b98 <uart_tx_lock>
    uart_tx_r += 1;
    80000aec:	0000a497          	auipc	s1,0xa
    80000af0:	e6c48493          	add	s1,s1,-404 # 8000a958 <uart_tx_r>
    if(uart_tx_w == uart_tx_r){
    80000af4:	0000a997          	auipc	s3,0xa
    80000af8:	e6c98993          	add	s3,s3,-404 # 8000a960 <uart_tx_w>
    if((ReadReg(LSR) & LSR_TX_IDLE) == 0){
    80000afc:	00594703          	lbu	a4,5(s2) # 10000005 <_entry-0x6ffffffb>
    80000b00:	02077713          	and	a4,a4,32
    80000b04:	02070a63          	beqz	a4,80000b38 <uartstart+0x90>
    int c = uart_tx_buf[uart_tx_r % UART_TX_BUF_SIZE];
    80000b08:	01f7f713          	and	a4,a5,31
    80000b0c:	00ea0733          	add	a4,s4,a4
    80000b10:	01874a83          	lbu	s5,24(a4)
    uart_tx_r += 1;
    80000b14:	00178793          	add	a5,a5,1
    80000b18:	00f4b023          	sd	a5,0(s1)
    
    // maybe uartputc() is waiting for space in the buffer.
    wakeup(&uart_tx_r);
    80000b1c:	00048513          	mv	a0,s1
    80000b20:	00002097          	auipc	ra,0x2
    80000b24:	30c080e7          	jalr	780(ra) # 80002e2c <wakeup>
    
    WriteReg(THR, c);
    80000b28:	01590023          	sb	s5,0(s2)
    if(uart_tx_w == uart_tx_r){
    80000b2c:	0004b783          	ld	a5,0(s1)
    80000b30:	0009b703          	ld	a4,0(s3)
    80000b34:	fcf714e3          	bne	a4,a5,80000afc <uartstart+0x54>
  }
}
    80000b38:	03813083          	ld	ra,56(sp)
    80000b3c:	03013403          	ld	s0,48(sp)
    80000b40:	02813483          	ld	s1,40(sp)
    80000b44:	02013903          	ld	s2,32(sp)
    80000b48:	01813983          	ld	s3,24(sp)
    80000b4c:	01013a03          	ld	s4,16(sp)
    80000b50:	00813a83          	ld	s5,8(sp)
    80000b54:	04010113          	add	sp,sp,64
    80000b58:	00008067          	ret
    80000b5c:	00008067          	ret

0000000080000b60 <uartputc>:
{
    80000b60:	fd010113          	add	sp,sp,-48
    80000b64:	02113423          	sd	ra,40(sp)
    80000b68:	02813023          	sd	s0,32(sp)
    80000b6c:	00913c23          	sd	s1,24(sp)
    80000b70:	01213823          	sd	s2,16(sp)
    80000b74:	01313423          	sd	s3,8(sp)
    80000b78:	01413023          	sd	s4,0(sp)
    80000b7c:	03010413          	add	s0,sp,48
    80000b80:	00050a13          	mv	s4,a0
  acquire(&uart_tx_lock);
    80000b84:	00012517          	auipc	a0,0x12
    80000b88:	01450513          	add	a0,a0,20 # 80012b98 <uart_tx_lock>
    80000b8c:	00000097          	auipc	ra,0x0
    80000b90:	438080e7          	jalr	1080(ra) # 80000fc4 <acquire>
  if(panicked){
    80000b94:	0000a797          	auipc	a5,0xa
    80000b98:	dbc7a783          	lw	a5,-580(a5) # 8000a950 <panicked>
    80000b9c:	0a079463          	bnez	a5,80000c44 <uartputc+0xe4>
  while(uart_tx_w == uart_tx_r + UART_TX_BUF_SIZE){
    80000ba0:	0000a717          	auipc	a4,0xa
    80000ba4:	dc073703          	ld	a4,-576(a4) # 8000a960 <uart_tx_w>
    80000ba8:	0000a797          	auipc	a5,0xa
    80000bac:	db07b783          	ld	a5,-592(a5) # 8000a958 <uart_tx_r>
    80000bb0:	02078793          	add	a5,a5,32
    sleep(&uart_tx_r, &uart_tx_lock);
    80000bb4:	00012997          	auipc	s3,0x12
    80000bb8:	fe498993          	add	s3,s3,-28 # 80012b98 <uart_tx_lock>
    80000bbc:	0000a497          	auipc	s1,0xa
    80000bc0:	d9c48493          	add	s1,s1,-612 # 8000a958 <uart_tx_r>
  while(uart_tx_w == uart_tx_r + UART_TX_BUF_SIZE){
    80000bc4:	0000a917          	auipc	s2,0xa
    80000bc8:	d9c90913          	add	s2,s2,-612 # 8000a960 <uart_tx_w>
    80000bcc:	02e79263          	bne	a5,a4,80000bf0 <uartputc+0x90>
    sleep(&uart_tx_r, &uart_tx_lock);
    80000bd0:	00098593          	mv	a1,s3
    80000bd4:	00048513          	mv	a0,s1
    80000bd8:	00002097          	auipc	ra,0x2
    80000bdc:	1c4080e7          	jalr	452(ra) # 80002d9c <sleep>
  while(uart_tx_w == uart_tx_r + UART_TX_BUF_SIZE){
    80000be0:	00093703          	ld	a4,0(s2)
    80000be4:	0004b783          	ld	a5,0(s1)
    80000be8:	02078793          	add	a5,a5,32
    80000bec:	fee782e3          	beq	a5,a4,80000bd0 <uartputc+0x70>
  uart_tx_buf[uart_tx_w % UART_TX_BUF_SIZE] = c;
    80000bf0:	00012497          	auipc	s1,0x12
    80000bf4:	fa848493          	add	s1,s1,-88 # 80012b98 <uart_tx_lock>
    80000bf8:	01f77793          	and	a5,a4,31
    80000bfc:	00f487b3          	add	a5,s1,a5
    80000c00:	01478c23          	sb	s4,24(a5)
  uart_tx_w += 1;
    80000c04:	00170713          	add	a4,a4,1
    80000c08:	0000a797          	auipc	a5,0xa
    80000c0c:	d4e7bc23          	sd	a4,-680(a5) # 8000a960 <uart_tx_w>
  uartstart();
    80000c10:	00000097          	auipc	ra,0x0
    80000c14:	e98080e7          	jalr	-360(ra) # 80000aa8 <uartstart>
  release(&uart_tx_lock);
    80000c18:	00048513          	mv	a0,s1
    80000c1c:	00000097          	auipc	ra,0x0
    80000c20:	4a0080e7          	jalr	1184(ra) # 800010bc <release>
}
    80000c24:	02813083          	ld	ra,40(sp)
    80000c28:	02013403          	ld	s0,32(sp)
    80000c2c:	01813483          	ld	s1,24(sp)
    80000c30:	01013903          	ld	s2,16(sp)
    80000c34:	00813983          	ld	s3,8(sp)
    80000c38:	00013a03          	ld	s4,0(sp)
    80000c3c:	03010113          	add	sp,sp,48
    80000c40:	00008067          	ret
    for(;;)
    80000c44:	0000006f          	j	80000c44 <uartputc+0xe4>

0000000080000c48 <uartgetc>:

// read one input character from the UART.
// return -1 if none is waiting.
int
uartgetc(void)
{
    80000c48:	ff010113          	add	sp,sp,-16
    80000c4c:	00813423          	sd	s0,8(sp)
    80000c50:	01010413          	add	s0,sp,16
  if(ReadReg(LSR) & 0x01){
    80000c54:	100007b7          	lui	a5,0x10000
    80000c58:	0057c783          	lbu	a5,5(a5) # 10000005 <_entry-0x6ffffffb>
    80000c5c:	0017f793          	and	a5,a5,1
    80000c60:	00078c63          	beqz	a5,80000c78 <uartgetc+0x30>
    // input data is ready.
    return ReadReg(RHR);
    80000c64:	100007b7          	lui	a5,0x10000
    80000c68:	0007c503          	lbu	a0,0(a5) # 10000000 <_entry-0x70000000>
  } else {
    return -1;
  }
}
    80000c6c:	00813403          	ld	s0,8(sp)
    80000c70:	01010113          	add	sp,sp,16
    80000c74:	00008067          	ret
    return -1;
    80000c78:	fff00513          	li	a0,-1
    80000c7c:	ff1ff06f          	j	80000c6c <uartgetc+0x24>

0000000080000c80 <uartintr>:
// handle a uart interrupt, raised because input has
// arrived, or the uart is ready for more output, or
// both. called from devintr().
void
uartintr(void)
{
    80000c80:	fe010113          	add	sp,sp,-32
    80000c84:	00113c23          	sd	ra,24(sp)
    80000c88:	00813823          	sd	s0,16(sp)
    80000c8c:	00913423          	sd	s1,8(sp)
    80000c90:	02010413          	add	s0,sp,32
  // read and process incoming characters.
  while(1){
    int c = uartgetc();
    if(c == -1)
    80000c94:	fff00493          	li	s1,-1
    80000c98:	00c0006f          	j	80000ca4 <uartintr+0x24>
      break;
    consoleintr(c);
    80000c9c:	fffff097          	auipc	ra,0xfffff
    80000ca0:	714080e7          	jalr	1812(ra) # 800003b0 <consoleintr>
    int c = uartgetc();
    80000ca4:	00000097          	auipc	ra,0x0
    80000ca8:	fa4080e7          	jalr	-92(ra) # 80000c48 <uartgetc>
    if(c == -1)
    80000cac:	fe9518e3          	bne	a0,s1,80000c9c <uartintr+0x1c>
  }

  // send buffered characters.
  acquire(&uart_tx_lock);
    80000cb0:	00012497          	auipc	s1,0x12
    80000cb4:	ee848493          	add	s1,s1,-280 # 80012b98 <uart_tx_lock>
    80000cb8:	00048513          	mv	a0,s1
    80000cbc:	00000097          	auipc	ra,0x0
    80000cc0:	308080e7          	jalr	776(ra) # 80000fc4 <acquire>
  uartstart();
    80000cc4:	00000097          	auipc	ra,0x0
    80000cc8:	de4080e7          	jalr	-540(ra) # 80000aa8 <uartstart>
  release(&uart_tx_lock);
    80000ccc:	00048513          	mv	a0,s1
    80000cd0:	00000097          	auipc	ra,0x0
    80000cd4:	3ec080e7          	jalr	1004(ra) # 800010bc <release>
}
    80000cd8:	01813083          	ld	ra,24(sp)
    80000cdc:	01013403          	ld	s0,16(sp)
    80000ce0:	00813483          	ld	s1,8(sp)
    80000ce4:	02010113          	add	sp,sp,32
    80000ce8:	00008067          	ret

0000000080000cec <kfree>:
// which normally should have been returned by a
// call to kalloc().  (The exception is when
// initializing the allocator; see kinit above.)
void
kfree(void *pa)
{
    80000cec:	fe010113          	add	sp,sp,-32
    80000cf0:	00113c23          	sd	ra,24(sp)
    80000cf4:	00813823          	sd	s0,16(sp)
    80000cf8:	00913423          	sd	s1,8(sp)
    80000cfc:	01213023          	sd	s2,0(sp)
    80000d00:	02010413          	add	s0,sp,32
  struct run *r;

  if(((uint64)pa % PGSIZE) != 0 || (char*)pa < end || (uint64)pa >= PHYSTOP)
    80000d04:	03451793          	sll	a5,a0,0x34
    80000d08:	06079a63          	bnez	a5,80000d7c <kfree+0x90>
    80000d0c:	00050493          	mv	s1,a0
    80000d10:	00023797          	auipc	a5,0x23
    80000d14:	0f078793          	add	a5,a5,240 # 80023e00 <end>
    80000d18:	06f56263          	bltu	a0,a5,80000d7c <kfree+0x90>
    80000d1c:	01100793          	li	a5,17
    80000d20:	01b79793          	sll	a5,a5,0x1b
    80000d24:	04f57c63          	bgeu	a0,a5,80000d7c <kfree+0x90>
    panic("kfree");

  // Fill with junk to catch dangling refs.
  memset(pa, 1, PGSIZE);
    80000d28:	00001637          	lui	a2,0x1
    80000d2c:	00100593          	li	a1,1
    80000d30:	00000097          	auipc	ra,0x0
    80000d34:	3ec080e7          	jalr	1004(ra) # 8000111c <memset>

  r = (struct run*)pa;

  acquire(&kmem.lock);
    80000d38:	00012917          	auipc	s2,0x12
    80000d3c:	e9890913          	add	s2,s2,-360 # 80012bd0 <kmem>
    80000d40:	00090513          	mv	a0,s2
    80000d44:	00000097          	auipc	ra,0x0
    80000d48:	280080e7          	jalr	640(ra) # 80000fc4 <acquire>
  r->next = kmem.freelist;
    80000d4c:	01893783          	ld	a5,24(s2)
    80000d50:	00f4b023          	sd	a5,0(s1)
  kmem.freelist = r;
    80000d54:	00993c23          	sd	s1,24(s2)
  release(&kmem.lock);
    80000d58:	00090513          	mv	a0,s2
    80000d5c:	00000097          	auipc	ra,0x0
    80000d60:	360080e7          	jalr	864(ra) # 800010bc <release>
}
    80000d64:	01813083          	ld	ra,24(sp)
    80000d68:	01013403          	ld	s0,16(sp)
    80000d6c:	00813483          	ld	s1,8(sp)
    80000d70:	00013903          	ld	s2,0(sp)
    80000d74:	02010113          	add	sp,sp,32
    80000d78:	00008067          	ret
    panic("kfree");
    80000d7c:	00009517          	auipc	a0,0x9
    80000d80:	2e450513          	add	a0,a0,740 # 8000a060 <digits+0x20>
    80000d84:	00000097          	auipc	ra,0x0
    80000d88:	944080e7          	jalr	-1724(ra) # 800006c8 <panic>

0000000080000d8c <freerange>:
{
    80000d8c:	fd010113          	add	sp,sp,-48
    80000d90:	02113423          	sd	ra,40(sp)
    80000d94:	02813023          	sd	s0,32(sp)
    80000d98:	00913c23          	sd	s1,24(sp)
    80000d9c:	01213823          	sd	s2,16(sp)
    80000da0:	01313423          	sd	s3,8(sp)
    80000da4:	01413023          	sd	s4,0(sp)
    80000da8:	03010413          	add	s0,sp,48
  p = (char*)PGROUNDUP((uint64)pa_start);
    80000dac:	000017b7          	lui	a5,0x1
    80000db0:	fff78713          	add	a4,a5,-1 # fff <_entry-0x7ffff001>
    80000db4:	00e504b3          	add	s1,a0,a4
    80000db8:	fffff737          	lui	a4,0xfffff
    80000dbc:	00e4f4b3          	and	s1,s1,a4
  for(; p + PGSIZE <= (char*)pa_end; p += PGSIZE)
    80000dc0:	00f484b3          	add	s1,s1,a5
    80000dc4:	0295e263          	bltu	a1,s1,80000de8 <freerange+0x5c>
    80000dc8:	00058913          	mv	s2,a1
    kfree(p);
    80000dcc:	fffffa37          	lui	s4,0xfffff
  for(; p + PGSIZE <= (char*)pa_end; p += PGSIZE)
    80000dd0:	000019b7          	lui	s3,0x1
    kfree(p);
    80000dd4:	01448533          	add	a0,s1,s4
    80000dd8:	00000097          	auipc	ra,0x0
    80000ddc:	f14080e7          	jalr	-236(ra) # 80000cec <kfree>
  for(; p + PGSIZE <= (char*)pa_end; p += PGSIZE)
    80000de0:	013484b3          	add	s1,s1,s3
    80000de4:	fe9978e3          	bgeu	s2,s1,80000dd4 <freerange+0x48>
}
    80000de8:	02813083          	ld	ra,40(sp)
    80000dec:	02013403          	ld	s0,32(sp)
    80000df0:	01813483          	ld	s1,24(sp)
    80000df4:	01013903          	ld	s2,16(sp)
    80000df8:	00813983          	ld	s3,8(sp)
    80000dfc:	00013a03          	ld	s4,0(sp)
    80000e00:	03010113          	add	sp,sp,48
    80000e04:	00008067          	ret

0000000080000e08 <kinit>:
{
    80000e08:	ff010113          	add	sp,sp,-16
    80000e0c:	00113423          	sd	ra,8(sp)
    80000e10:	00813023          	sd	s0,0(sp)
    80000e14:	01010413          	add	s0,sp,16
  initlock(&kmem.lock, "kmem");
    80000e18:	00009597          	auipc	a1,0x9
    80000e1c:	25058593          	add	a1,a1,592 # 8000a068 <digits+0x28>
    80000e20:	00012517          	auipc	a0,0x12
    80000e24:	db050513          	add	a0,a0,-592 # 80012bd0 <kmem>
    80000e28:	00000097          	auipc	ra,0x0
    80000e2c:	0b8080e7          	jalr	184(ra) # 80000ee0 <initlock>
  freerange(end, (void*)PHYSTOP);
    80000e30:	01100593          	li	a1,17
    80000e34:	01b59593          	sll	a1,a1,0x1b
    80000e38:	00023517          	auipc	a0,0x23
    80000e3c:	fc850513          	add	a0,a0,-56 # 80023e00 <end>
    80000e40:	00000097          	auipc	ra,0x0
    80000e44:	f4c080e7          	jalr	-180(ra) # 80000d8c <freerange>
}
    80000e48:	00813083          	ld	ra,8(sp)
    80000e4c:	00013403          	ld	s0,0(sp)
    80000e50:	01010113          	add	sp,sp,16
    80000e54:	00008067          	ret

0000000080000e58 <kalloc>:
// Allocate one 4096-byte page of physical memory.
// Returns a pointer that the kernel can use.
// Returns 0 if the memory cannot be allocated.
void *
kalloc(void)
{
    80000e58:	fe010113          	add	sp,sp,-32
    80000e5c:	00113c23          	sd	ra,24(sp)
    80000e60:	00813823          	sd	s0,16(sp)
    80000e64:	00913423          	sd	s1,8(sp)
    80000e68:	02010413          	add	s0,sp,32
  struct run *r;

  acquire(&kmem.lock);
    80000e6c:	00012497          	auipc	s1,0x12
    80000e70:	d6448493          	add	s1,s1,-668 # 80012bd0 <kmem>
    80000e74:	00048513          	mv	a0,s1
    80000e78:	00000097          	auipc	ra,0x0
    80000e7c:	14c080e7          	jalr	332(ra) # 80000fc4 <acquire>
  r = kmem.freelist;
    80000e80:	0184b483          	ld	s1,24(s1)
  if(r)
    80000e84:	04048463          	beqz	s1,80000ecc <kalloc+0x74>
    kmem.freelist = r->next;
    80000e88:	0004b783          	ld	a5,0(s1)
    80000e8c:	00012517          	auipc	a0,0x12
    80000e90:	d4450513          	add	a0,a0,-700 # 80012bd0 <kmem>
    80000e94:	00f53c23          	sd	a5,24(a0)
  release(&kmem.lock);
    80000e98:	00000097          	auipc	ra,0x0
    80000e9c:	224080e7          	jalr	548(ra) # 800010bc <release>

  if(r)
    memset((char*)r, 5, PGSIZE); // fill with junk
    80000ea0:	00001637          	lui	a2,0x1
    80000ea4:	00500593          	li	a1,5
    80000ea8:	00048513          	mv	a0,s1
    80000eac:	00000097          	auipc	ra,0x0
    80000eb0:	270080e7          	jalr	624(ra) # 8000111c <memset>
  return (void*)r;
}
    80000eb4:	00048513          	mv	a0,s1
    80000eb8:	01813083          	ld	ra,24(sp)
    80000ebc:	01013403          	ld	s0,16(sp)
    80000ec0:	00813483          	ld	s1,8(sp)
    80000ec4:	02010113          	add	sp,sp,32
    80000ec8:	00008067          	ret
  release(&kmem.lock);
    80000ecc:	00012517          	auipc	a0,0x12
    80000ed0:	d0450513          	add	a0,a0,-764 # 80012bd0 <kmem>
    80000ed4:	00000097          	auipc	ra,0x0
    80000ed8:	1e8080e7          	jalr	488(ra) # 800010bc <release>
  if(r)
    80000edc:	fd9ff06f          	j	80000eb4 <kalloc+0x5c>

0000000080000ee0 <initlock>:
#include "proc.h"
#include "defs.h"

void
initlock(struct spinlock *lk, char *name)
{
    80000ee0:	ff010113          	add	sp,sp,-16
    80000ee4:	00813423          	sd	s0,8(sp)
    80000ee8:	01010413          	add	s0,sp,16
  lk->name = name;
    80000eec:	00b53423          	sd	a1,8(a0)
  lk->locked = 0;
    80000ef0:	00052023          	sw	zero,0(a0)
  lk->cpu = 0;
    80000ef4:	00053823          	sd	zero,16(a0)
}
    80000ef8:	00813403          	ld	s0,8(sp)
    80000efc:	01010113          	add	sp,sp,16
    80000f00:	00008067          	ret

0000000080000f04 <holding>:
// Interrupts must be off.
int
holding(struct spinlock *lk)
{
  int r;
  r = (lk->locked && lk->cpu == mycpu());
    80000f04:	00052783          	lw	a5,0(a0)
    80000f08:	00079663          	bnez	a5,80000f14 <holding+0x10>
    80000f0c:	00000513          	li	a0,0
  return r;
}
    80000f10:	00008067          	ret
{
    80000f14:	fe010113          	add	sp,sp,-32
    80000f18:	00113c23          	sd	ra,24(sp)
    80000f1c:	00813823          	sd	s0,16(sp)
    80000f20:	00913423          	sd	s1,8(sp)
    80000f24:	02010413          	add	s0,sp,32
  r = (lk->locked && lk->cpu == mycpu());
    80000f28:	01053483          	ld	s1,16(a0)
    80000f2c:	00001097          	auipc	ra,0x1
    80000f30:	4f8080e7          	jalr	1272(ra) # 80002424 <mycpu>
    80000f34:	40a48533          	sub	a0,s1,a0
    80000f38:	00153513          	seqz	a0,a0
}
    80000f3c:	01813083          	ld	ra,24(sp)
    80000f40:	01013403          	ld	s0,16(sp)
    80000f44:	00813483          	ld	s1,8(sp)
    80000f48:	02010113          	add	sp,sp,32
    80000f4c:	00008067          	ret

0000000080000f50 <push_off>:
// it takes two pop_off()s to undo two push_off()s.  Also, if interrupts
// are initially off, then push_off, pop_off leaves them off.

void
push_off(void)
{
    80000f50:	fe010113          	add	sp,sp,-32
    80000f54:	00113c23          	sd	ra,24(sp)
    80000f58:	00813823          	sd	s0,16(sp)
    80000f5c:	00913423          	sd	s1,8(sp)
    80000f60:	02010413          	add	s0,sp,32
  asm volatile("csrr %0, sstatus" : "=r" (x) );
    80000f64:	100024f3          	csrr	s1,sstatus
    80000f68:	100027f3          	csrr	a5,sstatus
  w_sstatus(r_sstatus() & ~SSTATUS_SIE);
    80000f6c:	ffd7f793          	and	a5,a5,-3
  asm volatile("csrw sstatus, %0" : : "r" (x));
    80000f70:	10079073          	csrw	sstatus,a5
  int old = intr_get();

  intr_off();
  if(mycpu()->noff == 0)
    80000f74:	00001097          	auipc	ra,0x1
    80000f78:	4b0080e7          	jalr	1200(ra) # 80002424 <mycpu>
    80000f7c:	07852783          	lw	a5,120(a0)
    80000f80:	02078663          	beqz	a5,80000fac <push_off+0x5c>
    mycpu()->intena = old;
  mycpu()->noff += 1;
    80000f84:	00001097          	auipc	ra,0x1
    80000f88:	4a0080e7          	jalr	1184(ra) # 80002424 <mycpu>
    80000f8c:	07852783          	lw	a5,120(a0)
    80000f90:	0017879b          	addw	a5,a5,1
    80000f94:	06f52c23          	sw	a5,120(a0)
}
    80000f98:	01813083          	ld	ra,24(sp)
    80000f9c:	01013403          	ld	s0,16(sp)
    80000fa0:	00813483          	ld	s1,8(sp)
    80000fa4:	02010113          	add	sp,sp,32
    80000fa8:	00008067          	ret
    mycpu()->intena = old;
    80000fac:	00001097          	auipc	ra,0x1
    80000fb0:	478080e7          	jalr	1144(ra) # 80002424 <mycpu>
  return (x & SSTATUS_SIE) != 0;
    80000fb4:	0014d493          	srl	s1,s1,0x1
    80000fb8:	0014f493          	and	s1,s1,1
    80000fbc:	06952e23          	sw	s1,124(a0)
    80000fc0:	fc5ff06f          	j	80000f84 <push_off+0x34>

0000000080000fc4 <acquire>:
{
    80000fc4:	fe010113          	add	sp,sp,-32
    80000fc8:	00113c23          	sd	ra,24(sp)
    80000fcc:	00813823          	sd	s0,16(sp)
    80000fd0:	00913423          	sd	s1,8(sp)
    80000fd4:	02010413          	add	s0,sp,32
    80000fd8:	00050493          	mv	s1,a0
  push_off(); // disable interrupts to avoid deadlock.
    80000fdc:	00000097          	auipc	ra,0x0
    80000fe0:	f74080e7          	jalr	-140(ra) # 80000f50 <push_off>
  if(holding(lk))
    80000fe4:	00048513          	mv	a0,s1
    80000fe8:	00000097          	auipc	ra,0x0
    80000fec:	f1c080e7          	jalr	-228(ra) # 80000f04 <holding>
  while(__sync_lock_test_and_set(&lk->locked, 1) != 0)
    80000ff0:	00100713          	li	a4,1
  if(holding(lk))
    80000ff4:	02051c63          	bnez	a0,8000102c <acquire+0x68>
  while(__sync_lock_test_and_set(&lk->locked, 1) != 0)
    80000ff8:	00070793          	mv	a5,a4
    80000ffc:	0cf4a7af          	amoswap.w.aq	a5,a5,(s1)
    80001000:	0007879b          	sext.w	a5,a5
    80001004:	fe079ae3          	bnez	a5,80000ff8 <acquire+0x34>
  __sync_synchronize();
    80001008:	0ff0000f          	fence
  lk->cpu = mycpu();
    8000100c:	00001097          	auipc	ra,0x1
    80001010:	418080e7          	jalr	1048(ra) # 80002424 <mycpu>
    80001014:	00a4b823          	sd	a0,16(s1)
}
    80001018:	01813083          	ld	ra,24(sp)
    8000101c:	01013403          	ld	s0,16(sp)
    80001020:	00813483          	ld	s1,8(sp)
    80001024:	02010113          	add	sp,sp,32
    80001028:	00008067          	ret
    panic("acquire");
    8000102c:	00009517          	auipc	a0,0x9
    80001030:	04450513          	add	a0,a0,68 # 8000a070 <digits+0x30>
    80001034:	fffff097          	auipc	ra,0xfffff
    80001038:	694080e7          	jalr	1684(ra) # 800006c8 <panic>

000000008000103c <pop_off>:

void
pop_off(void)
{
    8000103c:	ff010113          	add	sp,sp,-16
    80001040:	00113423          	sd	ra,8(sp)
    80001044:	00813023          	sd	s0,0(sp)
    80001048:	01010413          	add	s0,sp,16
  struct cpu *c = mycpu();
    8000104c:	00001097          	auipc	ra,0x1
    80001050:	3d8080e7          	jalr	984(ra) # 80002424 <mycpu>
  asm volatile("csrr %0, sstatus" : "=r" (x) );
    80001054:	100027f3          	csrr	a5,sstatus
  return (x & SSTATUS_SIE) != 0;
    80001058:	0027f793          	and	a5,a5,2
  if(intr_get())
    8000105c:	04079063          	bnez	a5,8000109c <pop_off+0x60>
    panic("pop_off - interruptible");
  if(c->noff < 1)
    80001060:	07852783          	lw	a5,120(a0)
    80001064:	04f05463          	blez	a5,800010ac <pop_off+0x70>
    panic("pop_off");
  c->noff -= 1;
    80001068:	fff7879b          	addw	a5,a5,-1
    8000106c:	0007871b          	sext.w	a4,a5
    80001070:	06f52c23          	sw	a5,120(a0)
  if(c->noff == 0 && c->intena)
    80001074:	00071c63          	bnez	a4,8000108c <pop_off+0x50>
    80001078:	07c52783          	lw	a5,124(a0)
    8000107c:	00078863          	beqz	a5,8000108c <pop_off+0x50>
  asm volatile("csrr %0, sstatus" : "=r" (x) );
    80001080:	100027f3          	csrr	a5,sstatus
  w_sstatus(r_sstatus() | SSTATUS_SIE);
    80001084:	0027e793          	or	a5,a5,2
  asm volatile("csrw sstatus, %0" : : "r" (x));
    80001088:	10079073          	csrw	sstatus,a5
    intr_on();
}
    8000108c:	00813083          	ld	ra,8(sp)
    80001090:	00013403          	ld	s0,0(sp)
    80001094:	01010113          	add	sp,sp,16
    80001098:	00008067          	ret
    panic("pop_off - interruptible");
    8000109c:	00009517          	auipc	a0,0x9
    800010a0:	fdc50513          	add	a0,a0,-36 # 8000a078 <digits+0x38>
    800010a4:	fffff097          	auipc	ra,0xfffff
    800010a8:	624080e7          	jalr	1572(ra) # 800006c8 <panic>
    panic("pop_off");
    800010ac:	00009517          	auipc	a0,0x9
    800010b0:	fe450513          	add	a0,a0,-28 # 8000a090 <digits+0x50>
    800010b4:	fffff097          	auipc	ra,0xfffff
    800010b8:	614080e7          	jalr	1556(ra) # 800006c8 <panic>

00000000800010bc <release>:
{
    800010bc:	fe010113          	add	sp,sp,-32
    800010c0:	00113c23          	sd	ra,24(sp)
    800010c4:	00813823          	sd	s0,16(sp)
    800010c8:	00913423          	sd	s1,8(sp)
    800010cc:	02010413          	add	s0,sp,32
    800010d0:	00050493          	mv	s1,a0
  if(!holding(lk))
    800010d4:	00000097          	auipc	ra,0x0
    800010d8:	e30080e7          	jalr	-464(ra) # 80000f04 <holding>
    800010dc:	02050863          	beqz	a0,8000110c <release+0x50>
  lk->cpu = 0;
    800010e0:	0004b823          	sd	zero,16(s1)
  __sync_synchronize();
    800010e4:	0ff0000f          	fence
  __sync_lock_release(&lk->locked);
    800010e8:	0f50000f          	fence	iorw,ow
    800010ec:	0804a02f          	amoswap.w	zero,zero,(s1)
  pop_off();
    800010f0:	00000097          	auipc	ra,0x0
    800010f4:	f4c080e7          	jalr	-180(ra) # 8000103c <pop_off>
}
    800010f8:	01813083          	ld	ra,24(sp)
    800010fc:	01013403          	ld	s0,16(sp)
    80001100:	00813483          	ld	s1,8(sp)
    80001104:	02010113          	add	sp,sp,32
    80001108:	00008067          	ret
    panic("release");
    8000110c:	00009517          	auipc	a0,0x9
    80001110:	f8c50513          	add	a0,a0,-116 # 8000a098 <digits+0x58>
    80001114:	fffff097          	auipc	ra,0xfffff
    80001118:	5b4080e7          	jalr	1460(ra) # 800006c8 <panic>

000000008000111c <memset>:
#include "types.h"

void*
memset(void *dst, int c, uint n)
{
    8000111c:	ff010113          	add	sp,sp,-16
    80001120:	00813423          	sd	s0,8(sp)
    80001124:	01010413          	add	s0,sp,16
  char *cdst = (char *) dst;
  int i;
  for(i = 0; i < n; i++){
    80001128:	02060063          	beqz	a2,80001148 <memset+0x2c>
    8000112c:	00050793          	mv	a5,a0
    80001130:	02061613          	sll	a2,a2,0x20
    80001134:	02065613          	srl	a2,a2,0x20
    80001138:	00a60733          	add	a4,a2,a0
    cdst[i] = c;
    8000113c:	00b78023          	sb	a1,0(a5)
  for(i = 0; i < n; i++){
    80001140:	00178793          	add	a5,a5,1
    80001144:	fee79ce3          	bne	a5,a4,8000113c <memset+0x20>
  }
  return dst;
}
    80001148:	00813403          	ld	s0,8(sp)
    8000114c:	01010113          	add	sp,sp,16
    80001150:	00008067          	ret

0000000080001154 <memcmp>:

int
memcmp(const void *v1, const void *v2, uint n)
{
    80001154:	ff010113          	add	sp,sp,-16
    80001158:	00813423          	sd	s0,8(sp)
    8000115c:	01010413          	add	s0,sp,16
  const uchar *s1, *s2;

  s1 = v1;
  s2 = v2;
  while(n-- > 0){
    80001160:	04060463          	beqz	a2,800011a8 <memcmp+0x54>
    80001164:	fff6069b          	addw	a3,a2,-1 # fff <_entry-0x7ffff001>
    80001168:	02069693          	sll	a3,a3,0x20
    8000116c:	0206d693          	srl	a3,a3,0x20
    80001170:	00168693          	add	a3,a3,1
    80001174:	00d506b3          	add	a3,a0,a3
    if(*s1 != *s2)
    80001178:	00054783          	lbu	a5,0(a0)
    8000117c:	0005c703          	lbu	a4,0(a1)
    80001180:	00e79c63          	bne	a5,a4,80001198 <memcmp+0x44>
      return *s1 - *s2;
    s1++, s2++;
    80001184:	00150513          	add	a0,a0,1
    80001188:	00158593          	add	a1,a1,1
  while(n-- > 0){
    8000118c:	fed516e3          	bne	a0,a3,80001178 <memcmp+0x24>
  }

  return 0;
    80001190:	00000513          	li	a0,0
    80001194:	0080006f          	j	8000119c <memcmp+0x48>
      return *s1 - *s2;
    80001198:	40e7853b          	subw	a0,a5,a4
}
    8000119c:	00813403          	ld	s0,8(sp)
    800011a0:	01010113          	add	sp,sp,16
    800011a4:	00008067          	ret
  return 0;
    800011a8:	00000513          	li	a0,0
    800011ac:	ff1ff06f          	j	8000119c <memcmp+0x48>

00000000800011b0 <memmove>:

void*
memmove(void *dst, const void *src, uint n)
{
    800011b0:	ff010113          	add	sp,sp,-16
    800011b4:	00813423          	sd	s0,8(sp)
    800011b8:	01010413          	add	s0,sp,16
  const char *s;
  char *d;

  if(n == 0)
    800011bc:	02060663          	beqz	a2,800011e8 <memmove+0x38>
    return dst;
  
  s = src;
  d = dst;
  if(s < d && s + n > d){
    800011c0:	02a5ea63          	bltu	a1,a0,800011f4 <memmove+0x44>
    s += n;
    d += n;
    while(n-- > 0)
      *--d = *--s;
  } else
    while(n-- > 0)
    800011c4:	02061613          	sll	a2,a2,0x20
    800011c8:	02065613          	srl	a2,a2,0x20
    800011cc:	00c587b3          	add	a5,a1,a2
{
    800011d0:	00050713          	mv	a4,a0
      *d++ = *s++;
    800011d4:	00158593          	add	a1,a1,1
    800011d8:	00170713          	add	a4,a4,1 # fffffffffffff001 <end+0xffffffff7ffdb201>
    800011dc:	fff5c683          	lbu	a3,-1(a1)
    800011e0:	fed70fa3          	sb	a3,-1(a4)
    while(n-- > 0)
    800011e4:	fef598e3          	bne	a1,a5,800011d4 <memmove+0x24>

  return dst;
}
    800011e8:	00813403          	ld	s0,8(sp)
    800011ec:	01010113          	add	sp,sp,16
    800011f0:	00008067          	ret
  if(s < d && s + n > d){
    800011f4:	02061693          	sll	a3,a2,0x20
    800011f8:	0206d693          	srl	a3,a3,0x20
    800011fc:	00d58733          	add	a4,a1,a3
    80001200:	fce572e3          	bgeu	a0,a4,800011c4 <memmove+0x14>
    d += n;
    80001204:	00d506b3          	add	a3,a0,a3
    while(n-- > 0)
    80001208:	fff6079b          	addw	a5,a2,-1
    8000120c:	02079793          	sll	a5,a5,0x20
    80001210:	0207d793          	srl	a5,a5,0x20
    80001214:	fff7c793          	not	a5,a5
    80001218:	00f707b3          	add	a5,a4,a5
      *--d = *--s;
    8000121c:	fff70713          	add	a4,a4,-1
    80001220:	fff68693          	add	a3,a3,-1
    80001224:	00074603          	lbu	a2,0(a4)
    80001228:	00c68023          	sb	a2,0(a3)
    while(n-- > 0)
    8000122c:	fee798e3          	bne	a5,a4,8000121c <memmove+0x6c>
    80001230:	fb9ff06f          	j	800011e8 <memmove+0x38>

0000000080001234 <memcpy>:

// memcpy exists to placate GCC.  Use memmove.
void*
memcpy(void *dst, const void *src, uint n)
{
    80001234:	ff010113          	add	sp,sp,-16
    80001238:	00113423          	sd	ra,8(sp)
    8000123c:	00813023          	sd	s0,0(sp)
    80001240:	01010413          	add	s0,sp,16
  return memmove(dst, src, n);
    80001244:	00000097          	auipc	ra,0x0
    80001248:	f6c080e7          	jalr	-148(ra) # 800011b0 <memmove>
}
    8000124c:	00813083          	ld	ra,8(sp)
    80001250:	00013403          	ld	s0,0(sp)
    80001254:	01010113          	add	sp,sp,16
    80001258:	00008067          	ret

000000008000125c <strncmp>:

int
strncmp(const char *p, const char *q, uint n)
{
    8000125c:	ff010113          	add	sp,sp,-16
    80001260:	00813423          	sd	s0,8(sp)
    80001264:	01010413          	add	s0,sp,16
  while(n > 0 && *p && *p == *q)
    80001268:	02060663          	beqz	a2,80001294 <strncmp+0x38>
    8000126c:	00054783          	lbu	a5,0(a0)
    80001270:	02078663          	beqz	a5,8000129c <strncmp+0x40>
    80001274:	0005c703          	lbu	a4,0(a1)
    80001278:	02f71263          	bne	a4,a5,8000129c <strncmp+0x40>
    n--, p++, q++;
    8000127c:	fff6061b          	addw	a2,a2,-1
    80001280:	00150513          	add	a0,a0,1
    80001284:	00158593          	add	a1,a1,1
  while(n > 0 && *p && *p == *q)
    80001288:	fe0612e3          	bnez	a2,8000126c <strncmp+0x10>
  if(n == 0)
    return 0;
    8000128c:	00000513          	li	a0,0
    80001290:	01c0006f          	j	800012ac <strncmp+0x50>
    80001294:	00000513          	li	a0,0
    80001298:	0140006f          	j	800012ac <strncmp+0x50>
  if(n == 0)
    8000129c:	00060e63          	beqz	a2,800012b8 <strncmp+0x5c>
  return (uchar)*p - (uchar)*q;
    800012a0:	00054503          	lbu	a0,0(a0)
    800012a4:	0005c783          	lbu	a5,0(a1)
    800012a8:	40f5053b          	subw	a0,a0,a5
}
    800012ac:	00813403          	ld	s0,8(sp)
    800012b0:	01010113          	add	sp,sp,16
    800012b4:	00008067          	ret
    return 0;
    800012b8:	00000513          	li	a0,0
    800012bc:	ff1ff06f          	j	800012ac <strncmp+0x50>

00000000800012c0 <strncpy>:

char*
strncpy(char *s, const char *t, int n)
{
    800012c0:	ff010113          	add	sp,sp,-16
    800012c4:	00813423          	sd	s0,8(sp)
    800012c8:	01010413          	add	s0,sp,16
  char *os;

  os = s;
  while(n-- > 0 && (*s++ = *t++) != 0)
    800012cc:	00050793          	mv	a5,a0
    800012d0:	00060693          	mv	a3,a2
    800012d4:	fff6061b          	addw	a2,a2,-1
    800012d8:	00d05c63          	blez	a3,800012f0 <strncpy+0x30>
    800012dc:	00178793          	add	a5,a5,1
    800012e0:	0005c703          	lbu	a4,0(a1)
    800012e4:	fee78fa3          	sb	a4,-1(a5)
    800012e8:	00158593          	add	a1,a1,1
    800012ec:	fe0712e3          	bnez	a4,800012d0 <strncpy+0x10>
    ;
  while(n-- > 0)
    800012f0:	00078713          	mv	a4,a5
    800012f4:	00d787bb          	addw	a5,a5,a3
    800012f8:	fff7879b          	addw	a5,a5,-1
    800012fc:	00c05a63          	blez	a2,80001310 <strncpy+0x50>
    *s++ = 0;
    80001300:	00170713          	add	a4,a4,1
    80001304:	fe070fa3          	sb	zero,-1(a4)
  while(n-- > 0)
    80001308:	40e786bb          	subw	a3,a5,a4
    8000130c:	fed04ae3          	bgtz	a3,80001300 <strncpy+0x40>
  return os;
}
    80001310:	00813403          	ld	s0,8(sp)
    80001314:	01010113          	add	sp,sp,16
    80001318:	00008067          	ret

000000008000131c <safestrcpy>:

// Like strncpy but guaranteed to NUL-terminate.
char*
safestrcpy(char *s, const char *t, int n)
{
    8000131c:	ff010113          	add	sp,sp,-16
    80001320:	00813423          	sd	s0,8(sp)
    80001324:	01010413          	add	s0,sp,16
  char *os;

  os = s;
  if(n <= 0)
    80001328:	02c05a63          	blez	a2,8000135c <safestrcpy+0x40>
    8000132c:	fff6069b          	addw	a3,a2,-1
    80001330:	02069693          	sll	a3,a3,0x20
    80001334:	0206d693          	srl	a3,a3,0x20
    80001338:	00d586b3          	add	a3,a1,a3
    8000133c:	00050793          	mv	a5,a0
    return os;
  while(--n > 0 && (*s++ = *t++) != 0)
    80001340:	00d58c63          	beq	a1,a3,80001358 <safestrcpy+0x3c>
    80001344:	00158593          	add	a1,a1,1
    80001348:	00178793          	add	a5,a5,1
    8000134c:	fff5c703          	lbu	a4,-1(a1)
    80001350:	fee78fa3          	sb	a4,-1(a5)
    80001354:	fe0716e3          	bnez	a4,80001340 <safestrcpy+0x24>
    ;
  *s = 0;
    80001358:	00078023          	sb	zero,0(a5)
  return os;
}
    8000135c:	00813403          	ld	s0,8(sp)
    80001360:	01010113          	add	sp,sp,16
    80001364:	00008067          	ret

0000000080001368 <strlen>:

int
strlen(const char *s)
{
    80001368:	ff010113          	add	sp,sp,-16
    8000136c:	00813423          	sd	s0,8(sp)
    80001370:	01010413          	add	s0,sp,16
  int n;

  for(n = 0; s[n]; n++)
    80001374:	00054783          	lbu	a5,0(a0)
    80001378:	02078863          	beqz	a5,800013a8 <strlen+0x40>
    8000137c:	00150513          	add	a0,a0,1
    80001380:	00050793          	mv	a5,a0
    80001384:	00078693          	mv	a3,a5
    80001388:	00178793          	add	a5,a5,1
    8000138c:	fff7c703          	lbu	a4,-1(a5)
    80001390:	fe071ae3          	bnez	a4,80001384 <strlen+0x1c>
    80001394:	40a6853b          	subw	a0,a3,a0
    80001398:	0015051b          	addw	a0,a0,1
    ;
  return n;
}
    8000139c:	00813403          	ld	s0,8(sp)
    800013a0:	01010113          	add	sp,sp,16
    800013a4:	00008067          	ret
  for(n = 0; s[n]; n++)
    800013a8:	00000513          	li	a0,0
    800013ac:	ff1ff06f          	j	8000139c <strlen+0x34>

00000000800013b0 <main>:
volatile static int started = 0;

// start() jumps here in supervisor mode on all CPUs.
void
main()
{
    800013b0:	ff010113          	add	sp,sp,-16
    800013b4:	00113423          	sd	ra,8(sp)
    800013b8:	00813023          	sd	s0,0(sp)
    800013bc:	01010413          	add	s0,sp,16
  if(cpuid() == 0){
    800013c0:	00001097          	auipc	ra,0x1
    800013c4:	044080e7          	jalr	68(ra) # 80002404 <cpuid>
    virtio_disk_init(); // emulated hard disk
    userinit();      // first user process
    __sync_synchronize();
    started = 1;
  } else {
    while(started == 0)
    800013c8:	00009717          	auipc	a4,0x9
    800013cc:	5a070713          	add	a4,a4,1440 # 8000a968 <started>
  if(cpuid() == 0){
    800013d0:	04050063          	beqz	a0,80001410 <main+0x60>
    while(started == 0)
    800013d4:	00072783          	lw	a5,0(a4)
    800013d8:	0007879b          	sext.w	a5,a5
    800013dc:	fe078ce3          	beqz	a5,800013d4 <main+0x24>
      ;
    __sync_synchronize();
    800013e0:	0ff0000f          	fence
    kvminithart();    // turn on paging
    800013e4:	00000097          	auipc	ra,0x0
    800013e8:	0fc080e7          	jalr	252(ra) # 800014e0 <kvminithart>
    trapinithart();   // install kernel trap vector
    800013ec:	00002097          	auipc	ra,0x2
    800013f0:	208080e7          	jalr	520(ra) # 800035f4 <trapinithart>
    plicinithart();   // ask PLIC for device interrupts
    800013f4:	00007097          	auipc	ra,0x7
    800013f8:	b24080e7          	jalr	-1244(ra) # 80007f18 <plicinithart>
  }

  if (cpuid() == 0) {
    800013fc:	00001097          	auipc	ra,0x1
    80001400:	008080e7          	jalr	8(ra) # 80002404 <cpuid>
    80001404:	0a050c63          	beqz	a0,800014bc <main+0x10c>
      " | |_| | |  | | (_| \\__ \\__ \\ |_| |___) |\n"
      "  \\___/|_|  |_|\\__,_|___/___/\\___/|____/ \n"
    );
  }

  scheduler();        
    80001408:	00001097          	auipc	ra,0x1
    8000140c:	74c080e7          	jalr	1868(ra) # 80002b54 <scheduler>
    consoleinit();
    80001410:	fffff097          	auipc	ra,0xfffff
    80001414:	178080e7          	jalr	376(ra) # 80000588 <consoleinit>
    printfinit();
    80001418:	fffff097          	auipc	ra,0xfffff
    8000141c:	578080e7          	jalr	1400(ra) # 80000990 <printfinit>
    printf("\n");
    80001420:	00009517          	auipc	a0,0x9
    80001424:	09050513          	add	a0,a0,144 # 8000a4b0 <states.0+0x130>
    80001428:	fffff097          	auipc	ra,0xfffff
    8000142c:	2fc080e7          	jalr	764(ra) # 80000724 <printf>
    printf("\n");
    80001430:	00009517          	auipc	a0,0x9
    80001434:	08050513          	add	a0,a0,128 # 8000a4b0 <states.0+0x130>
    80001438:	fffff097          	auipc	ra,0xfffff
    8000143c:	2ec080e7          	jalr	748(ra) # 80000724 <printf>
    kinit();         // physical page allocator
    80001440:	00000097          	auipc	ra,0x0
    80001444:	9c8080e7          	jalr	-1592(ra) # 80000e08 <kinit>
    kvminit();       // create kernel page table
    80001448:	00000097          	auipc	ra,0x0
    8000144c:	4a4080e7          	jalr	1188(ra) # 800018ec <kvminit>
    kvminithart();   // turn on paging
    80001450:	00000097          	auipc	ra,0x0
    80001454:	090080e7          	jalr	144(ra) # 800014e0 <kvminithart>
    procinit();      // process table
    80001458:	00001097          	auipc	ra,0x1
    8000145c:	ec0080e7          	jalr	-320(ra) # 80002318 <procinit>
    trapinit();      // trap vectors
    80001460:	00002097          	auipc	ra,0x2
    80001464:	15c080e7          	jalr	348(ra) # 800035bc <trapinit>
    trapinithart();  // install kernel trap vector
    80001468:	00002097          	auipc	ra,0x2
    8000146c:	18c080e7          	jalr	396(ra) # 800035f4 <trapinithart>
    plicinit();      // set up interrupt controller
    80001470:	00007097          	auipc	ra,0x7
    80001474:	a80080e7          	jalr	-1408(ra) # 80007ef0 <plicinit>
    plicinithart();  // ask PLIC for device interrupts
    80001478:	00007097          	auipc	ra,0x7
    8000147c:	aa0080e7          	jalr	-1376(ra) # 80007f18 <plicinithart>
    binit();         // buffer cache
    80001480:	00003097          	auipc	ra,0x3
    80001484:	bc0080e7          	jalr	-1088(ra) # 80004040 <binit>
    iinit();         // inode table
    80001488:	00003097          	auipc	ra,0x3
    8000148c:	4a0080e7          	jalr	1184(ra) # 80004928 <iinit>
    fileinit();      // file table
    80001490:	00005097          	auipc	ra,0x5
    80001494:	a58080e7          	jalr	-1448(ra) # 80005ee8 <fileinit>
    virtio_disk_init(); // emulated hard disk
    80001498:	00007097          	auipc	ra,0x7
    8000149c:	bec080e7          	jalr	-1044(ra) # 80008084 <virtio_disk_init>
    userinit();      // first user process
    800014a0:	00001097          	auipc	ra,0x1
    800014a4:	3d8080e7          	jalr	984(ra) # 80002878 <userinit>
    __sync_synchronize();
    800014a8:	0ff0000f          	fence
    started = 1;
    800014ac:	00100793          	li	a5,1
    800014b0:	00009717          	auipc	a4,0x9
    800014b4:	4af72c23          	sw	a5,1208(a4) # 8000a968 <started>
    800014b8:	f45ff06f          	j	800013fc <main+0x4c>
    printf("Welcome to\n");
    800014bc:	00009517          	auipc	a0,0x9
    800014c0:	be450513          	add	a0,a0,-1052 # 8000a0a0 <digits+0x60>
    800014c4:	fffff097          	auipc	ra,0xfffff
    800014c8:	260080e7          	jalr	608(ra) # 80000724 <printf>
    printf(
    800014cc:	00009517          	auipc	a0,0x9
    800014d0:	be450513          	add	a0,a0,-1052 # 8000a0b0 <digits+0x70>
    800014d4:	fffff097          	auipc	ra,0xfffff
    800014d8:	250080e7          	jalr	592(ra) # 80000724 <printf>
    800014dc:	f2dff06f          	j	80001408 <main+0x58>

00000000800014e0 <kvminithart>:

// Switch h/w page table register to the kernel's page table,
// and enable paging.
void
kvminithart()
{
    800014e0:	ff010113          	add	sp,sp,-16
    800014e4:	00813423          	sd	s0,8(sp)
    800014e8:	01010413          	add	s0,sp,16
// flush the TLB.
static inline void
sfence_vma()
{
  // the zero, zero means flush all TLB entries.
  asm volatile("sfence.vma zero, zero");
    800014ec:	12000073          	sfence.vma
  // wait for any previous writes to the page table memory to finish.
  sfence_vma();

  w_satp(MAKE_SATP(kernel_pagetable));
    800014f0:	00009797          	auipc	a5,0x9
    800014f4:	4807b783          	ld	a5,1152(a5) # 8000a970 <kernel_pagetable>
    800014f8:	00c7d793          	srl	a5,a5,0xc
    800014fc:	fff00713          	li	a4,-1
    80001500:	03f71713          	sll	a4,a4,0x3f
    80001504:	00e7e7b3          	or	a5,a5,a4
  asm volatile("csrw satp, %0" : : "r" (x));
    80001508:	18079073          	csrw	satp,a5
  asm volatile("sfence.vma zero, zero");
    8000150c:	12000073          	sfence.vma

  // flush stale entries from the TLB.
  sfence_vma();
}
    80001510:	00813403          	ld	s0,8(sp)
    80001514:	01010113          	add	sp,sp,16
    80001518:	00008067          	ret

000000008000151c <walk>:
//   21..29 -- 9 bits of level-1 index.
//   12..20 -- 9 bits of level-0 index.
//    0..11 -- 12 bits of byte offset within the page.
pte_t *
walk(pagetable_t pagetable, uint64 va, int alloc)
{
    8000151c:	fc010113          	add	sp,sp,-64
    80001520:	02113c23          	sd	ra,56(sp)
    80001524:	02813823          	sd	s0,48(sp)
    80001528:	02913423          	sd	s1,40(sp)
    8000152c:	03213023          	sd	s2,32(sp)
    80001530:	01313c23          	sd	s3,24(sp)
    80001534:	01413823          	sd	s4,16(sp)
    80001538:	01513423          	sd	s5,8(sp)
    8000153c:	01613023          	sd	s6,0(sp)
    80001540:	04010413          	add	s0,sp,64
    80001544:	00050493          	mv	s1,a0
    80001548:	00058993          	mv	s3,a1
    8000154c:	00060a93          	mv	s5,a2
  if(va >= MAXVA)
    80001550:	fff00793          	li	a5,-1
    80001554:	01a7d793          	srl	a5,a5,0x1a
    80001558:	01e00a13          	li	s4,30
    panic("walk");

  for(int level = 2; level > 0; level--) {
    8000155c:	00c00b13          	li	s6,12
  if(va >= MAXVA)
    80001560:	04b7f863          	bgeu	a5,a1,800015b0 <walk+0x94>
    panic("walk");
    80001564:	00009517          	auipc	a0,0x9
    80001568:	c2450513          	add	a0,a0,-988 # 8000a188 <digits+0x148>
    8000156c:	fffff097          	auipc	ra,0xfffff
    80001570:	15c080e7          	jalr	348(ra) # 800006c8 <panic>
    pte_t *pte = &pagetable[PX(level, va)];
    if(*pte & PTE_V) {
      pagetable = (pagetable_t)PTE2PA(*pte);
    } else {
      if(!alloc || (pagetable = (pde_t*)kalloc()) == 0)
    80001574:	080a8e63          	beqz	s5,80001610 <walk+0xf4>
    80001578:	00000097          	auipc	ra,0x0
    8000157c:	8e0080e7          	jalr	-1824(ra) # 80000e58 <kalloc>
    80001580:	00050493          	mv	s1,a0
    80001584:	06050263          	beqz	a0,800015e8 <walk+0xcc>
        return 0;
      memset(pagetable, 0, PGSIZE);
    80001588:	00001637          	lui	a2,0x1
    8000158c:	00000593          	li	a1,0
    80001590:	00000097          	auipc	ra,0x0
    80001594:	b8c080e7          	jalr	-1140(ra) # 8000111c <memset>
      *pte = PA2PTE(pagetable) | PTE_V;
    80001598:	00c4d793          	srl	a5,s1,0xc
    8000159c:	00a79793          	sll	a5,a5,0xa
    800015a0:	0017e793          	or	a5,a5,1
    800015a4:	00f93023          	sd	a5,0(s2)
  for(int level = 2; level > 0; level--) {
    800015a8:	ff7a0a1b          	addw	s4,s4,-9 # ffffffffffffeff7 <end+0xffffffff7ffdb1f7>
    800015ac:	036a0663          	beq	s4,s6,800015d8 <walk+0xbc>
    pte_t *pte = &pagetable[PX(level, va)];
    800015b0:	0149d933          	srl	s2,s3,s4
    800015b4:	1ff97913          	and	s2,s2,511
    800015b8:	00391913          	sll	s2,s2,0x3
    800015bc:	01248933          	add	s2,s1,s2
    if(*pte & PTE_V) {
    800015c0:	00093483          	ld	s1,0(s2)
    800015c4:	0014f793          	and	a5,s1,1
    800015c8:	fa0786e3          	beqz	a5,80001574 <walk+0x58>
      pagetable = (pagetable_t)PTE2PA(*pte);
    800015cc:	00a4d493          	srl	s1,s1,0xa
    800015d0:	00c49493          	sll	s1,s1,0xc
    800015d4:	fd5ff06f          	j	800015a8 <walk+0x8c>
    }
  }
  return &pagetable[PX(0, va)];
    800015d8:	00c9d513          	srl	a0,s3,0xc
    800015dc:	1ff57513          	and	a0,a0,511
    800015e0:	00351513          	sll	a0,a0,0x3
    800015e4:	00a48533          	add	a0,s1,a0
}
    800015e8:	03813083          	ld	ra,56(sp)
    800015ec:	03013403          	ld	s0,48(sp)
    800015f0:	02813483          	ld	s1,40(sp)
    800015f4:	02013903          	ld	s2,32(sp)
    800015f8:	01813983          	ld	s3,24(sp)
    800015fc:	01013a03          	ld	s4,16(sp)
    80001600:	00813a83          	ld	s5,8(sp)
    80001604:	00013b03          	ld	s6,0(sp)
    80001608:	04010113          	add	sp,sp,64
    8000160c:	00008067          	ret
        return 0;
    80001610:	00000513          	li	a0,0
    80001614:	fd5ff06f          	j	800015e8 <walk+0xcc>

0000000080001618 <walkaddr>:
walkaddr(pagetable_t pagetable, uint64 va)
{
  pte_t *pte;
  uint64 pa;

  if(va >= MAXVA)
    80001618:	fff00793          	li	a5,-1
    8000161c:	01a7d793          	srl	a5,a5,0x1a
    80001620:	00b7f663          	bgeu	a5,a1,8000162c <walkaddr+0x14>
    return 0;
    80001624:	00000513          	li	a0,0
    return 0;
  if((*pte & PTE_U) == 0)
    return 0;
  pa = PTE2PA(*pte);
  return pa;
}
    80001628:	00008067          	ret
{
    8000162c:	ff010113          	add	sp,sp,-16
    80001630:	00113423          	sd	ra,8(sp)
    80001634:	00813023          	sd	s0,0(sp)
    80001638:	01010413          	add	s0,sp,16
  pte = walk(pagetable, va, 0);
    8000163c:	00000613          	li	a2,0
    80001640:	00000097          	auipc	ra,0x0
    80001644:	edc080e7          	jalr	-292(ra) # 8000151c <walk>
  if(pte == 0)
    80001648:	02050a63          	beqz	a0,8000167c <walkaddr+0x64>
  if((*pte & PTE_V) == 0)
    8000164c:	00053783          	ld	a5,0(a0)
  if((*pte & PTE_U) == 0)
    80001650:	0117f693          	and	a3,a5,17
    80001654:	01100713          	li	a4,17
    return 0;
    80001658:	00000513          	li	a0,0
  if((*pte & PTE_U) == 0)
    8000165c:	00e68a63          	beq	a3,a4,80001670 <walkaddr+0x58>
}
    80001660:	00813083          	ld	ra,8(sp)
    80001664:	00013403          	ld	s0,0(sp)
    80001668:	01010113          	add	sp,sp,16
    8000166c:	00008067          	ret
  pa = PTE2PA(*pte);
    80001670:	00a7d793          	srl	a5,a5,0xa
    80001674:	00c79513          	sll	a0,a5,0xc
  return pa;
    80001678:	fe9ff06f          	j	80001660 <walkaddr+0x48>
    return 0;
    8000167c:	00000513          	li	a0,0
    80001680:	fe1ff06f          	j	80001660 <walkaddr+0x48>

0000000080001684 <mappages>:
// physical addresses starting at pa. va and size might not
// be page-aligned. Returns 0 on success, -1 if walk() couldn't
// allocate a needed page-table page.
int
mappages(pagetable_t pagetable, uint64 va, uint64 size, uint64 pa, int perm)
{
    80001684:	fb010113          	add	sp,sp,-80
    80001688:	04113423          	sd	ra,72(sp)
    8000168c:	04813023          	sd	s0,64(sp)
    80001690:	02913c23          	sd	s1,56(sp)
    80001694:	03213823          	sd	s2,48(sp)
    80001698:	03313423          	sd	s3,40(sp)
    8000169c:	03413023          	sd	s4,32(sp)
    800016a0:	01513c23          	sd	s5,24(sp)
    800016a4:	01613823          	sd	s6,16(sp)
    800016a8:	01713423          	sd	s7,8(sp)
    800016ac:	05010413          	add	s0,sp,80
  uint64 a, last;
  pte_t *pte;

  if(size == 0)
    800016b0:	06060a63          	beqz	a2,80001724 <mappages+0xa0>
    800016b4:	00050a93          	mv	s5,a0
    800016b8:	00070b13          	mv	s6,a4
    panic("mappages: size");
  
  a = PGROUNDDOWN(va);
    800016bc:	fffff737          	lui	a4,0xfffff
    800016c0:	00e5f7b3          	and	a5,a1,a4
  last = PGROUNDDOWN(va + size - 1);
    800016c4:	fff58993          	add	s3,a1,-1
    800016c8:	00c989b3          	add	s3,s3,a2
    800016cc:	00e9f9b3          	and	s3,s3,a4
  a = PGROUNDDOWN(va);
    800016d0:	00078913          	mv	s2,a5
    800016d4:	40f68a33          	sub	s4,a3,a5
    if(*pte & PTE_V)
      panic("mappages: remap");
    *pte = PA2PTE(pa) | perm | PTE_V;
    if(a == last)
      break;
    a += PGSIZE;
    800016d8:	00001bb7          	lui	s7,0x1
    800016dc:	012a04b3          	add	s1,s4,s2
    if((pte = walk(pagetable, a, 1)) == 0)
    800016e0:	00100613          	li	a2,1
    800016e4:	00090593          	mv	a1,s2
    800016e8:	000a8513          	mv	a0,s5
    800016ec:	00000097          	auipc	ra,0x0
    800016f0:	e30080e7          	jalr	-464(ra) # 8000151c <walk>
    800016f4:	04050863          	beqz	a0,80001744 <mappages+0xc0>
    if(*pte & PTE_V)
    800016f8:	00053783          	ld	a5,0(a0)
    800016fc:	0017f793          	and	a5,a5,1
    80001700:	02079a63          	bnez	a5,80001734 <mappages+0xb0>
    *pte = PA2PTE(pa) | perm | PTE_V;
    80001704:	00c4d493          	srl	s1,s1,0xc
    80001708:	00a49493          	sll	s1,s1,0xa
    8000170c:	0164e4b3          	or	s1,s1,s6
    80001710:	0014e493          	or	s1,s1,1
    80001714:	00953023          	sd	s1,0(a0)
    if(a == last)
    80001718:	05390e63          	beq	s2,s3,80001774 <mappages+0xf0>
    a += PGSIZE;
    8000171c:	01790933          	add	s2,s2,s7
    if((pte = walk(pagetable, a, 1)) == 0)
    80001720:	fbdff06f          	j	800016dc <mappages+0x58>
    panic("mappages: size");
    80001724:	00009517          	auipc	a0,0x9
    80001728:	a6c50513          	add	a0,a0,-1428 # 8000a190 <digits+0x150>
    8000172c:	fffff097          	auipc	ra,0xfffff
    80001730:	f9c080e7          	jalr	-100(ra) # 800006c8 <panic>
      panic("mappages: remap");
    80001734:	00009517          	auipc	a0,0x9
    80001738:	a6c50513          	add	a0,a0,-1428 # 8000a1a0 <digits+0x160>
    8000173c:	fffff097          	auipc	ra,0xfffff
    80001740:	f8c080e7          	jalr	-116(ra) # 800006c8 <panic>
      return -1;
    80001744:	fff00513          	li	a0,-1
    pa += PGSIZE;
  }
  return 0;
}
    80001748:	04813083          	ld	ra,72(sp)
    8000174c:	04013403          	ld	s0,64(sp)
    80001750:	03813483          	ld	s1,56(sp)
    80001754:	03013903          	ld	s2,48(sp)
    80001758:	02813983          	ld	s3,40(sp)
    8000175c:	02013a03          	ld	s4,32(sp)
    80001760:	01813a83          	ld	s5,24(sp)
    80001764:	01013b03          	ld	s6,16(sp)
    80001768:	00813b83          	ld	s7,8(sp)
    8000176c:	05010113          	add	sp,sp,80
    80001770:	00008067          	ret
  return 0;
    80001774:	00000513          	li	a0,0
    80001778:	fd1ff06f          	j	80001748 <mappages+0xc4>

000000008000177c <kvmmap>:
{
    8000177c:	ff010113          	add	sp,sp,-16
    80001780:	00113423          	sd	ra,8(sp)
    80001784:	00813023          	sd	s0,0(sp)
    80001788:	01010413          	add	s0,sp,16
    8000178c:	00068793          	mv	a5,a3
  if(mappages(kpgtbl, va, sz, pa, perm) != 0)
    80001790:	00060693          	mv	a3,a2
    80001794:	00078613          	mv	a2,a5
    80001798:	00000097          	auipc	ra,0x0
    8000179c:	eec080e7          	jalr	-276(ra) # 80001684 <mappages>
    800017a0:	00051a63          	bnez	a0,800017b4 <kvmmap+0x38>
}
    800017a4:	00813083          	ld	ra,8(sp)
    800017a8:	00013403          	ld	s0,0(sp)
    800017ac:	01010113          	add	sp,sp,16
    800017b0:	00008067          	ret
    panic("kvmmap");
    800017b4:	00009517          	auipc	a0,0x9
    800017b8:	9fc50513          	add	a0,a0,-1540 # 8000a1b0 <digits+0x170>
    800017bc:	fffff097          	auipc	ra,0xfffff
    800017c0:	f0c080e7          	jalr	-244(ra) # 800006c8 <panic>

00000000800017c4 <kvmmake>:
{
    800017c4:	fe010113          	add	sp,sp,-32
    800017c8:	00113c23          	sd	ra,24(sp)
    800017cc:	00813823          	sd	s0,16(sp)
    800017d0:	00913423          	sd	s1,8(sp)
    800017d4:	01213023          	sd	s2,0(sp)
    800017d8:	02010413          	add	s0,sp,32
  kpgtbl = (pagetable_t) kalloc();
    800017dc:	fffff097          	auipc	ra,0xfffff
    800017e0:	67c080e7          	jalr	1660(ra) # 80000e58 <kalloc>
    800017e4:	00050493          	mv	s1,a0
  memset(kpgtbl, 0, PGSIZE);
    800017e8:	00001637          	lui	a2,0x1
    800017ec:	00000593          	li	a1,0
    800017f0:	00000097          	auipc	ra,0x0
    800017f4:	92c080e7          	jalr	-1748(ra) # 8000111c <memset>
  kvmmap(kpgtbl, UART0, UART0, PGSIZE, PTE_R | PTE_W);
    800017f8:	00600713          	li	a4,6
    800017fc:	000016b7          	lui	a3,0x1
    80001800:	10000637          	lui	a2,0x10000
    80001804:	100005b7          	lui	a1,0x10000
    80001808:	00048513          	mv	a0,s1
    8000180c:	00000097          	auipc	ra,0x0
    80001810:	f70080e7          	jalr	-144(ra) # 8000177c <kvmmap>
  kvmmap(kpgtbl, VIRTIO0, VIRTIO0, PGSIZE, PTE_R | PTE_W);
    80001814:	00600713          	li	a4,6
    80001818:	000016b7          	lui	a3,0x1
    8000181c:	10001637          	lui	a2,0x10001
    80001820:	100015b7          	lui	a1,0x10001
    80001824:	00048513          	mv	a0,s1
    80001828:	00000097          	auipc	ra,0x0
    8000182c:	f54080e7          	jalr	-172(ra) # 8000177c <kvmmap>
  kvmmap(kpgtbl, PLIC, PLIC, 0x400000, PTE_R | PTE_W);
    80001830:	00600713          	li	a4,6
    80001834:	004006b7          	lui	a3,0x400
    80001838:	0c000637          	lui	a2,0xc000
    8000183c:	0c0005b7          	lui	a1,0xc000
    80001840:	00048513          	mv	a0,s1
    80001844:	00000097          	auipc	ra,0x0
    80001848:	f38080e7          	jalr	-200(ra) # 8000177c <kvmmap>
  kvmmap(kpgtbl, KERNBASE, KERNBASE, (uint64)etext-KERNBASE, PTE_R | PTE_X);
    8000184c:	00008917          	auipc	s2,0x8
    80001850:	7b490913          	add	s2,s2,1972 # 8000a000 <etext>
    80001854:	00a00713          	li	a4,10
    80001858:	80008697          	auipc	a3,0x80008
    8000185c:	7a868693          	add	a3,a3,1960 # a000 <_entry-0x7fff6000>
    80001860:	00100613          	li	a2,1
    80001864:	01f61613          	sll	a2,a2,0x1f
    80001868:	00060593          	mv	a1,a2
    8000186c:	00048513          	mv	a0,s1
    80001870:	00000097          	auipc	ra,0x0
    80001874:	f0c080e7          	jalr	-244(ra) # 8000177c <kvmmap>
  kvmmap(kpgtbl, (uint64)etext, (uint64)etext, PHYSTOP-(uint64)etext, PTE_R | PTE_W);
    80001878:	00600713          	li	a4,6
    8000187c:	01100693          	li	a3,17
    80001880:	01b69693          	sll	a3,a3,0x1b
    80001884:	412686b3          	sub	a3,a3,s2
    80001888:	00090613          	mv	a2,s2
    8000188c:	00090593          	mv	a1,s2
    80001890:	00048513          	mv	a0,s1
    80001894:	00000097          	auipc	ra,0x0
    80001898:	ee8080e7          	jalr	-280(ra) # 8000177c <kvmmap>
  kvmmap(kpgtbl, TRAMPOLINE, (uint64)trampoline, PGSIZE, PTE_R | PTE_X);
    8000189c:	00a00713          	li	a4,10
    800018a0:	000016b7          	lui	a3,0x1
    800018a4:	00007617          	auipc	a2,0x7
    800018a8:	75c60613          	add	a2,a2,1884 # 80009000 <_trampoline>
    800018ac:	040005b7          	lui	a1,0x4000
    800018b0:	fff58593          	add	a1,a1,-1 # 3ffffff <_entry-0x7c000001>
    800018b4:	00c59593          	sll	a1,a1,0xc
    800018b8:	00048513          	mv	a0,s1
    800018bc:	00000097          	auipc	ra,0x0
    800018c0:	ec0080e7          	jalr	-320(ra) # 8000177c <kvmmap>
  proc_mapstacks(kpgtbl);
    800018c4:	00048513          	mv	a0,s1
    800018c8:	00001097          	auipc	ra,0x1
    800018cc:	97c080e7          	jalr	-1668(ra) # 80002244 <proc_mapstacks>
}
    800018d0:	00048513          	mv	a0,s1
    800018d4:	01813083          	ld	ra,24(sp)
    800018d8:	01013403          	ld	s0,16(sp)
    800018dc:	00813483          	ld	s1,8(sp)
    800018e0:	00013903          	ld	s2,0(sp)
    800018e4:	02010113          	add	sp,sp,32
    800018e8:	00008067          	ret

00000000800018ec <kvminit>:
{
    800018ec:	ff010113          	add	sp,sp,-16
    800018f0:	00113423          	sd	ra,8(sp)
    800018f4:	00813023          	sd	s0,0(sp)
    800018f8:	01010413          	add	s0,sp,16
  kernel_pagetable = kvmmake();
    800018fc:	00000097          	auipc	ra,0x0
    80001900:	ec8080e7          	jalr	-312(ra) # 800017c4 <kvmmake>
    80001904:	00009797          	auipc	a5,0x9
    80001908:	06a7b623          	sd	a0,108(a5) # 8000a970 <kernel_pagetable>
}
    8000190c:	00813083          	ld	ra,8(sp)
    80001910:	00013403          	ld	s0,0(sp)
    80001914:	01010113          	add	sp,sp,16
    80001918:	00008067          	ret

000000008000191c <uvmunmap>:
// Remove npages of mappings starting from va. va must be
// page-aligned. The mappings must exist.
// Optionally free the physical memory.
void
uvmunmap(pagetable_t pagetable, uint64 va, uint64 npages, int do_free)
{
    8000191c:	fb010113          	add	sp,sp,-80
    80001920:	04113423          	sd	ra,72(sp)
    80001924:	04813023          	sd	s0,64(sp)
    80001928:	02913c23          	sd	s1,56(sp)
    8000192c:	03213823          	sd	s2,48(sp)
    80001930:	03313423          	sd	s3,40(sp)
    80001934:	03413023          	sd	s4,32(sp)
    80001938:	01513c23          	sd	s5,24(sp)
    8000193c:	01613823          	sd	s6,16(sp)
    80001940:	01713423          	sd	s7,8(sp)
    80001944:	05010413          	add	s0,sp,80
  uint64 a;
  pte_t *pte;

  if((va % PGSIZE) != 0)
    80001948:	03459793          	sll	a5,a1,0x34
    8000194c:	04079863          	bnez	a5,8000199c <uvmunmap+0x80>
    80001950:	00050a13          	mv	s4,a0
    80001954:	00058913          	mv	s2,a1
    80001958:	00068a93          	mv	s5,a3
    panic("uvmunmap: not aligned");

  for(a = va; a < va + npages*PGSIZE; a += PGSIZE){
    8000195c:	00c61613          	sll	a2,a2,0xc
    80001960:	00b609b3          	add	s3,a2,a1
    if((pte = walk(pagetable, a, 0)) == 0)
      panic("uvmunmap: walk");
    if((*pte & PTE_V) == 0)
      panic("uvmunmap: not mapped");
    if(PTE_FLAGS(*pte) == PTE_V)
    80001964:	00100b93          	li	s7,1
  for(a = va; a < va + npages*PGSIZE; a += PGSIZE){
    80001968:	00001b37          	lui	s6,0x1
    8000196c:	0735ee63          	bltu	a1,s3,800019e8 <uvmunmap+0xcc>
      uint64 pa = PTE2PA(*pte);
      kfree((void*)pa);
    }
    *pte = 0;
  }
}
    80001970:	04813083          	ld	ra,72(sp)
    80001974:	04013403          	ld	s0,64(sp)
    80001978:	03813483          	ld	s1,56(sp)
    8000197c:	03013903          	ld	s2,48(sp)
    80001980:	02813983          	ld	s3,40(sp)
    80001984:	02013a03          	ld	s4,32(sp)
    80001988:	01813a83          	ld	s5,24(sp)
    8000198c:	01013b03          	ld	s6,16(sp)
    80001990:	00813b83          	ld	s7,8(sp)
    80001994:	05010113          	add	sp,sp,80
    80001998:	00008067          	ret
    panic("uvmunmap: not aligned");
    8000199c:	00009517          	auipc	a0,0x9
    800019a0:	81c50513          	add	a0,a0,-2020 # 8000a1b8 <digits+0x178>
    800019a4:	fffff097          	auipc	ra,0xfffff
    800019a8:	d24080e7          	jalr	-732(ra) # 800006c8 <panic>
      panic("uvmunmap: walk");
    800019ac:	00009517          	auipc	a0,0x9
    800019b0:	82450513          	add	a0,a0,-2012 # 8000a1d0 <digits+0x190>
    800019b4:	fffff097          	auipc	ra,0xfffff
    800019b8:	d14080e7          	jalr	-748(ra) # 800006c8 <panic>
      panic("uvmunmap: not mapped");
    800019bc:	00009517          	auipc	a0,0x9
    800019c0:	82450513          	add	a0,a0,-2012 # 8000a1e0 <digits+0x1a0>
    800019c4:	fffff097          	auipc	ra,0xfffff
    800019c8:	d04080e7          	jalr	-764(ra) # 800006c8 <panic>
      panic("uvmunmap: not a leaf");
    800019cc:	00009517          	auipc	a0,0x9
    800019d0:	82c50513          	add	a0,a0,-2004 # 8000a1f8 <digits+0x1b8>
    800019d4:	fffff097          	auipc	ra,0xfffff
    800019d8:	cf4080e7          	jalr	-780(ra) # 800006c8 <panic>
    *pte = 0;
    800019dc:	0004b023          	sd	zero,0(s1)
  for(a = va; a < va + npages*PGSIZE; a += PGSIZE){
    800019e0:	01690933          	add	s2,s2,s6
    800019e4:	f93976e3          	bgeu	s2,s3,80001970 <uvmunmap+0x54>
    if((pte = walk(pagetable, a, 0)) == 0)
    800019e8:	00000613          	li	a2,0
    800019ec:	00090593          	mv	a1,s2
    800019f0:	000a0513          	mv	a0,s4
    800019f4:	00000097          	auipc	ra,0x0
    800019f8:	b28080e7          	jalr	-1240(ra) # 8000151c <walk>
    800019fc:	00050493          	mv	s1,a0
    80001a00:	fa0506e3          	beqz	a0,800019ac <uvmunmap+0x90>
    if((*pte & PTE_V) == 0)
    80001a04:	00053503          	ld	a0,0(a0)
    80001a08:	00157793          	and	a5,a0,1
    80001a0c:	fa0788e3          	beqz	a5,800019bc <uvmunmap+0xa0>
    if(PTE_FLAGS(*pte) == PTE_V)
    80001a10:	3ff57793          	and	a5,a0,1023
    80001a14:	fb778ce3          	beq	a5,s7,800019cc <uvmunmap+0xb0>
    if(do_free){
    80001a18:	fc0a82e3          	beqz	s5,800019dc <uvmunmap+0xc0>
      uint64 pa = PTE2PA(*pte);
    80001a1c:	00a55513          	srl	a0,a0,0xa
      kfree((void*)pa);
    80001a20:	00c51513          	sll	a0,a0,0xc
    80001a24:	fffff097          	auipc	ra,0xfffff
    80001a28:	2c8080e7          	jalr	712(ra) # 80000cec <kfree>
    80001a2c:	fb1ff06f          	j	800019dc <uvmunmap+0xc0>

0000000080001a30 <uvmcreate>:

// create an empty user page table.
// returns 0 if out of memory.
pagetable_t
uvmcreate()
{
    80001a30:	fe010113          	add	sp,sp,-32
    80001a34:	00113c23          	sd	ra,24(sp)
    80001a38:	00813823          	sd	s0,16(sp)
    80001a3c:	00913423          	sd	s1,8(sp)
    80001a40:	02010413          	add	s0,sp,32
  pagetable_t pagetable;
  pagetable = (pagetable_t) kalloc();
    80001a44:	fffff097          	auipc	ra,0xfffff
    80001a48:	414080e7          	jalr	1044(ra) # 80000e58 <kalloc>
    80001a4c:	00050493          	mv	s1,a0
  if(pagetable == 0)
    80001a50:	00050a63          	beqz	a0,80001a64 <uvmcreate+0x34>
    return 0;
  memset(pagetable, 0, PGSIZE);
    80001a54:	00001637          	lui	a2,0x1
    80001a58:	00000593          	li	a1,0
    80001a5c:	fffff097          	auipc	ra,0xfffff
    80001a60:	6c0080e7          	jalr	1728(ra) # 8000111c <memset>
  return pagetable;
}
    80001a64:	00048513          	mv	a0,s1
    80001a68:	01813083          	ld	ra,24(sp)
    80001a6c:	01013403          	ld	s0,16(sp)
    80001a70:	00813483          	ld	s1,8(sp)
    80001a74:	02010113          	add	sp,sp,32
    80001a78:	00008067          	ret

0000000080001a7c <uvmfirst>:
// Load the user initcode into address 0 of pagetable,
// for the very first process.
// sz must be less than a page.
void
uvmfirst(pagetable_t pagetable, uchar *src, uint sz)
{
    80001a7c:	fd010113          	add	sp,sp,-48
    80001a80:	02113423          	sd	ra,40(sp)
    80001a84:	02813023          	sd	s0,32(sp)
    80001a88:	00913c23          	sd	s1,24(sp)
    80001a8c:	01213823          	sd	s2,16(sp)
    80001a90:	01313423          	sd	s3,8(sp)
    80001a94:	01413023          	sd	s4,0(sp)
    80001a98:	03010413          	add	s0,sp,48
  char *mem;

  if(sz >= PGSIZE)
    80001a9c:	000017b7          	lui	a5,0x1
    80001aa0:	06f67e63          	bgeu	a2,a5,80001b1c <uvmfirst+0xa0>
    80001aa4:	00050a13          	mv	s4,a0
    80001aa8:	00058993          	mv	s3,a1
    80001aac:	00060493          	mv	s1,a2
    panic("uvmfirst: more than a page");
  mem = kalloc();
    80001ab0:	fffff097          	auipc	ra,0xfffff
    80001ab4:	3a8080e7          	jalr	936(ra) # 80000e58 <kalloc>
    80001ab8:	00050913          	mv	s2,a0
  memset(mem, 0, PGSIZE);
    80001abc:	00001637          	lui	a2,0x1
    80001ac0:	00000593          	li	a1,0
    80001ac4:	fffff097          	auipc	ra,0xfffff
    80001ac8:	658080e7          	jalr	1624(ra) # 8000111c <memset>
  mappages(pagetable, 0, PGSIZE, (uint64)mem, PTE_W|PTE_R|PTE_X|PTE_U);
    80001acc:	01e00713          	li	a4,30
    80001ad0:	00090693          	mv	a3,s2
    80001ad4:	00001637          	lui	a2,0x1
    80001ad8:	00000593          	li	a1,0
    80001adc:	000a0513          	mv	a0,s4
    80001ae0:	00000097          	auipc	ra,0x0
    80001ae4:	ba4080e7          	jalr	-1116(ra) # 80001684 <mappages>
  memmove(mem, src, sz);
    80001ae8:	00048613          	mv	a2,s1
    80001aec:	00098593          	mv	a1,s3
    80001af0:	00090513          	mv	a0,s2
    80001af4:	fffff097          	auipc	ra,0xfffff
    80001af8:	6bc080e7          	jalr	1724(ra) # 800011b0 <memmove>
}
    80001afc:	02813083          	ld	ra,40(sp)
    80001b00:	02013403          	ld	s0,32(sp)
    80001b04:	01813483          	ld	s1,24(sp)
    80001b08:	01013903          	ld	s2,16(sp)
    80001b0c:	00813983          	ld	s3,8(sp)
    80001b10:	00013a03          	ld	s4,0(sp)
    80001b14:	03010113          	add	sp,sp,48
    80001b18:	00008067          	ret
    panic("uvmfirst: more than a page");
    80001b1c:	00008517          	auipc	a0,0x8
    80001b20:	6f450513          	add	a0,a0,1780 # 8000a210 <digits+0x1d0>
    80001b24:	fffff097          	auipc	ra,0xfffff
    80001b28:	ba4080e7          	jalr	-1116(ra) # 800006c8 <panic>

0000000080001b2c <uvmdealloc>:
// newsz.  oldsz and newsz need not be page-aligned, nor does newsz
// need to be less than oldsz.  oldsz can be larger than the actual
// process size.  Returns the new process size.
uint64
uvmdealloc(pagetable_t pagetable, uint64 oldsz, uint64 newsz)
{
    80001b2c:	fe010113          	add	sp,sp,-32
    80001b30:	00113c23          	sd	ra,24(sp)
    80001b34:	00813823          	sd	s0,16(sp)
    80001b38:	00913423          	sd	s1,8(sp)
    80001b3c:	02010413          	add	s0,sp,32
  if(newsz >= oldsz)
    return oldsz;
    80001b40:	00058493          	mv	s1,a1
  if(newsz >= oldsz)
    80001b44:	02b67463          	bgeu	a2,a1,80001b6c <uvmdealloc+0x40>
    80001b48:	00060493          	mv	s1,a2

  if(PGROUNDUP(newsz) < PGROUNDUP(oldsz)){
    80001b4c:	000017b7          	lui	a5,0x1
    80001b50:	fff78793          	add	a5,a5,-1 # fff <_entry-0x7ffff001>
    80001b54:	00f60733          	add	a4,a2,a5
    80001b58:	fffff6b7          	lui	a3,0xfffff
    80001b5c:	00d77733          	and	a4,a4,a3
    80001b60:	00f587b3          	add	a5,a1,a5
    80001b64:	00d7f7b3          	and	a5,a5,a3
    80001b68:	00f76e63          	bltu	a4,a5,80001b84 <uvmdealloc+0x58>
    int npages = (PGROUNDUP(oldsz) - PGROUNDUP(newsz)) / PGSIZE;
    uvmunmap(pagetable, PGROUNDUP(newsz), npages, 1);
  }

  return newsz;
}
    80001b6c:	00048513          	mv	a0,s1
    80001b70:	01813083          	ld	ra,24(sp)
    80001b74:	01013403          	ld	s0,16(sp)
    80001b78:	00813483          	ld	s1,8(sp)
    80001b7c:	02010113          	add	sp,sp,32
    80001b80:	00008067          	ret
    int npages = (PGROUNDUP(oldsz) - PGROUNDUP(newsz)) / PGSIZE;
    80001b84:	40e787b3          	sub	a5,a5,a4
    80001b88:	00c7d793          	srl	a5,a5,0xc
    uvmunmap(pagetable, PGROUNDUP(newsz), npages, 1);
    80001b8c:	00100693          	li	a3,1
    80001b90:	0007861b          	sext.w	a2,a5
    80001b94:	00070593          	mv	a1,a4
    80001b98:	00000097          	auipc	ra,0x0
    80001b9c:	d84080e7          	jalr	-636(ra) # 8000191c <uvmunmap>
    80001ba0:	fcdff06f          	j	80001b6c <uvmdealloc+0x40>

0000000080001ba4 <uvmalloc>:
  if(newsz < oldsz)
    80001ba4:	10b66863          	bltu	a2,a1,80001cb4 <uvmalloc+0x110>
{
    80001ba8:	fc010113          	add	sp,sp,-64
    80001bac:	02113c23          	sd	ra,56(sp)
    80001bb0:	02813823          	sd	s0,48(sp)
    80001bb4:	02913423          	sd	s1,40(sp)
    80001bb8:	03213023          	sd	s2,32(sp)
    80001bbc:	01313c23          	sd	s3,24(sp)
    80001bc0:	01413823          	sd	s4,16(sp)
    80001bc4:	01513423          	sd	s5,8(sp)
    80001bc8:	01613023          	sd	s6,0(sp)
    80001bcc:	04010413          	add	s0,sp,64
    80001bd0:	00050a93          	mv	s5,a0
    80001bd4:	00060a13          	mv	s4,a2
  oldsz = PGROUNDUP(oldsz);
    80001bd8:	000017b7          	lui	a5,0x1
    80001bdc:	fff78793          	add	a5,a5,-1 # fff <_entry-0x7ffff001>
    80001be0:	00f585b3          	add	a1,a1,a5
    80001be4:	fffff7b7          	lui	a5,0xfffff
    80001be8:	00f5f9b3          	and	s3,a1,a5
  for(a = oldsz; a < newsz; a += PGSIZE){
    80001bec:	0cc9f863          	bgeu	s3,a2,80001cbc <uvmalloc+0x118>
    80001bf0:	00098913          	mv	s2,s3
    if(mappages(pagetable, a, PGSIZE, (uint64)mem, PTE_R|PTE_U|xperm) != 0){
    80001bf4:	0126eb13          	or	s6,a3,18
    mem = kalloc();
    80001bf8:	fffff097          	auipc	ra,0xfffff
    80001bfc:	260080e7          	jalr	608(ra) # 80000e58 <kalloc>
    80001c00:	00050493          	mv	s1,a0
    if(mem == 0){
    80001c04:	04050463          	beqz	a0,80001c4c <uvmalloc+0xa8>
    memset(mem, 0, PGSIZE);
    80001c08:	00001637          	lui	a2,0x1
    80001c0c:	00000593          	li	a1,0
    80001c10:	fffff097          	auipc	ra,0xfffff
    80001c14:	50c080e7          	jalr	1292(ra) # 8000111c <memset>
    if(mappages(pagetable, a, PGSIZE, (uint64)mem, PTE_R|PTE_U|xperm) != 0){
    80001c18:	000b0713          	mv	a4,s6
    80001c1c:	00048693          	mv	a3,s1
    80001c20:	00001637          	lui	a2,0x1
    80001c24:	00090593          	mv	a1,s2
    80001c28:	000a8513          	mv	a0,s5
    80001c2c:	00000097          	auipc	ra,0x0
    80001c30:	a58080e7          	jalr	-1448(ra) # 80001684 <mappages>
    80001c34:	04051c63          	bnez	a0,80001c8c <uvmalloc+0xe8>
  for(a = oldsz; a < newsz; a += PGSIZE){
    80001c38:	000017b7          	lui	a5,0x1
    80001c3c:	00f90933          	add	s2,s2,a5
    80001c40:	fb496ce3          	bltu	s2,s4,80001bf8 <uvmalloc+0x54>
  return newsz;
    80001c44:	000a0513          	mv	a0,s4
    80001c48:	01c0006f          	j	80001c64 <uvmalloc+0xc0>
      uvmdealloc(pagetable, a, oldsz);
    80001c4c:	00098613          	mv	a2,s3
    80001c50:	00090593          	mv	a1,s2
    80001c54:	000a8513          	mv	a0,s5
    80001c58:	00000097          	auipc	ra,0x0
    80001c5c:	ed4080e7          	jalr	-300(ra) # 80001b2c <uvmdealloc>
      return 0;
    80001c60:	00000513          	li	a0,0
}
    80001c64:	03813083          	ld	ra,56(sp)
    80001c68:	03013403          	ld	s0,48(sp)
    80001c6c:	02813483          	ld	s1,40(sp)
    80001c70:	02013903          	ld	s2,32(sp)
    80001c74:	01813983          	ld	s3,24(sp)
    80001c78:	01013a03          	ld	s4,16(sp)
    80001c7c:	00813a83          	ld	s5,8(sp)
    80001c80:	00013b03          	ld	s6,0(sp)
    80001c84:	04010113          	add	sp,sp,64
    80001c88:	00008067          	ret
      kfree(mem);
    80001c8c:	00048513          	mv	a0,s1
    80001c90:	fffff097          	auipc	ra,0xfffff
    80001c94:	05c080e7          	jalr	92(ra) # 80000cec <kfree>
      uvmdealloc(pagetable, a, oldsz);
    80001c98:	00098613          	mv	a2,s3
    80001c9c:	00090593          	mv	a1,s2
    80001ca0:	000a8513          	mv	a0,s5
    80001ca4:	00000097          	auipc	ra,0x0
    80001ca8:	e88080e7          	jalr	-376(ra) # 80001b2c <uvmdealloc>
      return 0;
    80001cac:	00000513          	li	a0,0
    80001cb0:	fb5ff06f          	j	80001c64 <uvmalloc+0xc0>
    return oldsz;
    80001cb4:	00058513          	mv	a0,a1
}
    80001cb8:	00008067          	ret
  return newsz;
    80001cbc:	00060513          	mv	a0,a2
    80001cc0:	fa5ff06f          	j	80001c64 <uvmalloc+0xc0>

0000000080001cc4 <freewalk>:

// Recursively free page-table pages.
// All leaf mappings must already have been removed.
void
freewalk(pagetable_t pagetable)
{
    80001cc4:	fd010113          	add	sp,sp,-48
    80001cc8:	02113423          	sd	ra,40(sp)
    80001ccc:	02813023          	sd	s0,32(sp)
    80001cd0:	00913c23          	sd	s1,24(sp)
    80001cd4:	01213823          	sd	s2,16(sp)
    80001cd8:	01313423          	sd	s3,8(sp)
    80001cdc:	01413023          	sd	s4,0(sp)
    80001ce0:	03010413          	add	s0,sp,48
    80001ce4:	00050a13          	mv	s4,a0
  // there are 2^9 = 512 PTEs in a page table.
  for(int i = 0; i < 512; i++){
    80001ce8:	00050493          	mv	s1,a0
    80001cec:	00001937          	lui	s2,0x1
    80001cf0:	01250933          	add	s2,a0,s2
    pte_t pte = pagetable[i];
    if((pte & PTE_V) && (pte & (PTE_R|PTE_W|PTE_X)) == 0){
    80001cf4:	00100993          	li	s3,1
    80001cf8:	0200006f          	j	80001d18 <freewalk+0x54>
      // this PTE points to a lower-level page table.
      uint64 child = PTE2PA(pte);
    80001cfc:	00a7d793          	srl	a5,a5,0xa
      freewalk((pagetable_t)child);
    80001d00:	00c79513          	sll	a0,a5,0xc
    80001d04:	00000097          	auipc	ra,0x0
    80001d08:	fc0080e7          	jalr	-64(ra) # 80001cc4 <freewalk>
      pagetable[i] = 0;
    80001d0c:	0004b023          	sd	zero,0(s1)
  for(int i = 0; i < 512; i++){
    80001d10:	00848493          	add	s1,s1,8
    80001d14:	03248463          	beq	s1,s2,80001d3c <freewalk+0x78>
    pte_t pte = pagetable[i];
    80001d18:	0004b783          	ld	a5,0(s1)
    if((pte & PTE_V) && (pte & (PTE_R|PTE_W|PTE_X)) == 0){
    80001d1c:	00f7f713          	and	a4,a5,15
    80001d20:	fd370ee3          	beq	a4,s3,80001cfc <freewalk+0x38>
    } else if(pte & PTE_V){
    80001d24:	0017f793          	and	a5,a5,1
    80001d28:	fe0784e3          	beqz	a5,80001d10 <freewalk+0x4c>
      panic("freewalk: leaf");
    80001d2c:	00008517          	auipc	a0,0x8
    80001d30:	50450513          	add	a0,a0,1284 # 8000a230 <digits+0x1f0>
    80001d34:	fffff097          	auipc	ra,0xfffff
    80001d38:	994080e7          	jalr	-1644(ra) # 800006c8 <panic>
    }
  }
  kfree((void*)pagetable);
    80001d3c:	000a0513          	mv	a0,s4
    80001d40:	fffff097          	auipc	ra,0xfffff
    80001d44:	fac080e7          	jalr	-84(ra) # 80000cec <kfree>
}
    80001d48:	02813083          	ld	ra,40(sp)
    80001d4c:	02013403          	ld	s0,32(sp)
    80001d50:	01813483          	ld	s1,24(sp)
    80001d54:	01013903          	ld	s2,16(sp)
    80001d58:	00813983          	ld	s3,8(sp)
    80001d5c:	00013a03          	ld	s4,0(sp)
    80001d60:	03010113          	add	sp,sp,48
    80001d64:	00008067          	ret

0000000080001d68 <uvmfree>:

// Free user memory pages,
// then free page-table pages.
void
uvmfree(pagetable_t pagetable, uint64 sz)
{
    80001d68:	fe010113          	add	sp,sp,-32
    80001d6c:	00113c23          	sd	ra,24(sp)
    80001d70:	00813823          	sd	s0,16(sp)
    80001d74:	00913423          	sd	s1,8(sp)
    80001d78:	02010413          	add	s0,sp,32
    80001d7c:	00050493          	mv	s1,a0
  if(sz > 0)
    80001d80:	02059263          	bnez	a1,80001da4 <uvmfree+0x3c>
    uvmunmap(pagetable, 0, PGROUNDUP(sz)/PGSIZE, 1);
  freewalk(pagetable);
    80001d84:	00048513          	mv	a0,s1
    80001d88:	00000097          	auipc	ra,0x0
    80001d8c:	f3c080e7          	jalr	-196(ra) # 80001cc4 <freewalk>
}
    80001d90:	01813083          	ld	ra,24(sp)
    80001d94:	01013403          	ld	s0,16(sp)
    80001d98:	00813483          	ld	s1,8(sp)
    80001d9c:	02010113          	add	sp,sp,32
    80001da0:	00008067          	ret
    uvmunmap(pagetable, 0, PGROUNDUP(sz)/PGSIZE, 1);
    80001da4:	000017b7          	lui	a5,0x1
    80001da8:	fff78793          	add	a5,a5,-1 # fff <_entry-0x7ffff001>
    80001dac:	00f585b3          	add	a1,a1,a5
    80001db0:	00100693          	li	a3,1
    80001db4:	00c5d613          	srl	a2,a1,0xc
    80001db8:	00000593          	li	a1,0
    80001dbc:	00000097          	auipc	ra,0x0
    80001dc0:	b60080e7          	jalr	-1184(ra) # 8000191c <uvmunmap>
    80001dc4:	fc1ff06f          	j	80001d84 <uvmfree+0x1c>

0000000080001dc8 <uvmcopy>:
  pte_t *pte;
  uint64 pa, i;
  uint flags;
  char *mem;

  for(i = 0; i < sz; i += PGSIZE){
    80001dc8:	12060a63          	beqz	a2,80001efc <uvmcopy+0x134>
{
    80001dcc:	fb010113          	add	sp,sp,-80
    80001dd0:	04113423          	sd	ra,72(sp)
    80001dd4:	04813023          	sd	s0,64(sp)
    80001dd8:	02913c23          	sd	s1,56(sp)
    80001ddc:	03213823          	sd	s2,48(sp)
    80001de0:	03313423          	sd	s3,40(sp)
    80001de4:	03413023          	sd	s4,32(sp)
    80001de8:	01513c23          	sd	s5,24(sp)
    80001dec:	01613823          	sd	s6,16(sp)
    80001df0:	01713423          	sd	s7,8(sp)
    80001df4:	05010413          	add	s0,sp,80
    80001df8:	00050b13          	mv	s6,a0
    80001dfc:	00058a93          	mv	s5,a1
    80001e00:	00060a13          	mv	s4,a2
  for(i = 0; i < sz; i += PGSIZE){
    80001e04:	00000993          	li	s3,0
    if((pte = walk(old, i, 0)) == 0)
    80001e08:	00000613          	li	a2,0
    80001e0c:	00098593          	mv	a1,s3
    80001e10:	000b0513          	mv	a0,s6
    80001e14:	fffff097          	auipc	ra,0xfffff
    80001e18:	708080e7          	jalr	1800(ra) # 8000151c <walk>
    80001e1c:	06050663          	beqz	a0,80001e88 <uvmcopy+0xc0>
      panic("uvmcopy: pte should exist");
    if((*pte & PTE_V) == 0)
    80001e20:	00053703          	ld	a4,0(a0)
    80001e24:	00177793          	and	a5,a4,1
    80001e28:	06078863          	beqz	a5,80001e98 <uvmcopy+0xd0>
      panic("uvmcopy: page not present");
    pa = PTE2PA(*pte);
    80001e2c:	00a75593          	srl	a1,a4,0xa
    80001e30:	00c59b93          	sll	s7,a1,0xc
    flags = PTE_FLAGS(*pte);
    80001e34:	3ff77493          	and	s1,a4,1023
    if((mem = kalloc()) == 0)
    80001e38:	fffff097          	auipc	ra,0xfffff
    80001e3c:	020080e7          	jalr	32(ra) # 80000e58 <kalloc>
    80001e40:	00050913          	mv	s2,a0
    80001e44:	06050863          	beqz	a0,80001eb4 <uvmcopy+0xec>
      goto err;
    memmove(mem, (char*)pa, PGSIZE);
    80001e48:	00001637          	lui	a2,0x1
    80001e4c:	000b8593          	mv	a1,s7
    80001e50:	fffff097          	auipc	ra,0xfffff
    80001e54:	360080e7          	jalr	864(ra) # 800011b0 <memmove>
    if(mappages(new, i, PGSIZE, (uint64)mem, flags) != 0){
    80001e58:	00048713          	mv	a4,s1
    80001e5c:	00090693          	mv	a3,s2
    80001e60:	00001637          	lui	a2,0x1
    80001e64:	00098593          	mv	a1,s3
    80001e68:	000a8513          	mv	a0,s5
    80001e6c:	00000097          	auipc	ra,0x0
    80001e70:	818080e7          	jalr	-2024(ra) # 80001684 <mappages>
    80001e74:	02051a63          	bnez	a0,80001ea8 <uvmcopy+0xe0>
  for(i = 0; i < sz; i += PGSIZE){
    80001e78:	000017b7          	lui	a5,0x1
    80001e7c:	00f989b3          	add	s3,s3,a5
    80001e80:	f949e4e3          	bltu	s3,s4,80001e08 <uvmcopy+0x40>
    80001e84:	04c0006f          	j	80001ed0 <uvmcopy+0x108>
      panic("uvmcopy: pte should exist");
    80001e88:	00008517          	auipc	a0,0x8
    80001e8c:	3b850513          	add	a0,a0,952 # 8000a240 <digits+0x200>
    80001e90:	fffff097          	auipc	ra,0xfffff
    80001e94:	838080e7          	jalr	-1992(ra) # 800006c8 <panic>
      panic("uvmcopy: page not present");
    80001e98:	00008517          	auipc	a0,0x8
    80001e9c:	3c850513          	add	a0,a0,968 # 8000a260 <digits+0x220>
    80001ea0:	fffff097          	auipc	ra,0xfffff
    80001ea4:	828080e7          	jalr	-2008(ra) # 800006c8 <panic>
      kfree(mem);
    80001ea8:	00090513          	mv	a0,s2
    80001eac:	fffff097          	auipc	ra,0xfffff
    80001eb0:	e40080e7          	jalr	-448(ra) # 80000cec <kfree>
    }
  }
  return 0;

 err:
  uvmunmap(new, 0, i / PGSIZE, 1);
    80001eb4:	00100693          	li	a3,1
    80001eb8:	00c9d613          	srl	a2,s3,0xc
    80001ebc:	00000593          	li	a1,0
    80001ec0:	000a8513          	mv	a0,s5
    80001ec4:	00000097          	auipc	ra,0x0
    80001ec8:	a58080e7          	jalr	-1448(ra) # 8000191c <uvmunmap>
  return -1;
    80001ecc:	fff00513          	li	a0,-1
}
    80001ed0:	04813083          	ld	ra,72(sp)
    80001ed4:	04013403          	ld	s0,64(sp)
    80001ed8:	03813483          	ld	s1,56(sp)
    80001edc:	03013903          	ld	s2,48(sp)
    80001ee0:	02813983          	ld	s3,40(sp)
    80001ee4:	02013a03          	ld	s4,32(sp)
    80001ee8:	01813a83          	ld	s5,24(sp)
    80001eec:	01013b03          	ld	s6,16(sp)
    80001ef0:	00813b83          	ld	s7,8(sp)
    80001ef4:	05010113          	add	sp,sp,80
    80001ef8:	00008067          	ret
  return 0;
    80001efc:	00000513          	li	a0,0
}
    80001f00:	00008067          	ret

0000000080001f04 <uvmclear>:

// mark a PTE invalid for user access.
// used by exec for the user stack guard page.
void
uvmclear(pagetable_t pagetable, uint64 va)
{
    80001f04:	ff010113          	add	sp,sp,-16
    80001f08:	00113423          	sd	ra,8(sp)
    80001f0c:	00813023          	sd	s0,0(sp)
    80001f10:	01010413          	add	s0,sp,16
  pte_t *pte;
  
  pte = walk(pagetable, va, 0);
    80001f14:	00000613          	li	a2,0
    80001f18:	fffff097          	auipc	ra,0xfffff
    80001f1c:	604080e7          	jalr	1540(ra) # 8000151c <walk>
  if(pte == 0)
    80001f20:	02050063          	beqz	a0,80001f40 <uvmclear+0x3c>
    panic("uvmclear");
  *pte &= ~PTE_U;
    80001f24:	00053783          	ld	a5,0(a0)
    80001f28:	fef7f793          	and	a5,a5,-17
    80001f2c:	00f53023          	sd	a5,0(a0)
}
    80001f30:	00813083          	ld	ra,8(sp)
    80001f34:	00013403          	ld	s0,0(sp)
    80001f38:	01010113          	add	sp,sp,16
    80001f3c:	00008067          	ret
    panic("uvmclear");
    80001f40:	00008517          	auipc	a0,0x8
    80001f44:	34050513          	add	a0,a0,832 # 8000a280 <digits+0x240>
    80001f48:	ffffe097          	auipc	ra,0xffffe
    80001f4c:	780080e7          	jalr	1920(ra) # 800006c8 <panic>

0000000080001f50 <copyout>:
int
copyout(pagetable_t pagetable, uint64 dstva, char *src, uint64 len)
{
  uint64 n, va0, pa0;

  while(len > 0){
    80001f50:	0a068663          	beqz	a3,80001ffc <copyout+0xac>
{
    80001f54:	fb010113          	add	sp,sp,-80
    80001f58:	04113423          	sd	ra,72(sp)
    80001f5c:	04813023          	sd	s0,64(sp)
    80001f60:	02913c23          	sd	s1,56(sp)
    80001f64:	03213823          	sd	s2,48(sp)
    80001f68:	03313423          	sd	s3,40(sp)
    80001f6c:	03413023          	sd	s4,32(sp)
    80001f70:	01513c23          	sd	s5,24(sp)
    80001f74:	01613823          	sd	s6,16(sp)
    80001f78:	01713423          	sd	s7,8(sp)
    80001f7c:	01813023          	sd	s8,0(sp)
    80001f80:	05010413          	add	s0,sp,80
    80001f84:	00050b13          	mv	s6,a0
    80001f88:	00058c13          	mv	s8,a1
    80001f8c:	00060a13          	mv	s4,a2
    80001f90:	00068993          	mv	s3,a3
    va0 = PGROUNDDOWN(dstva);
    80001f94:	fffffbb7          	lui	s7,0xfffff
    pa0 = walkaddr(pagetable, va0);
    if(pa0 == 0)
      return -1;
    n = PGSIZE - (dstva - va0);
    80001f98:	00001ab7          	lui	s5,0x1
    80001f9c:	02c0006f          	j	80001fc8 <copyout+0x78>
    if(n > len)
      n = len;
    memmove((void *)(pa0 + (dstva - va0)), src, n);
    80001fa0:	01850533          	add	a0,a0,s8
    80001fa4:	0004861b          	sext.w	a2,s1
    80001fa8:	000a0593          	mv	a1,s4
    80001fac:	41250533          	sub	a0,a0,s2
    80001fb0:	fffff097          	auipc	ra,0xfffff
    80001fb4:	200080e7          	jalr	512(ra) # 800011b0 <memmove>

    len -= n;
    80001fb8:	409989b3          	sub	s3,s3,s1
    src += n;
    80001fbc:	009a0a33          	add	s4,s4,s1
    dstva = va0 + PGSIZE;
    80001fc0:	01590c33          	add	s8,s2,s5
  while(len > 0){
    80001fc4:	02098863          	beqz	s3,80001ff4 <copyout+0xa4>
    va0 = PGROUNDDOWN(dstva);
    80001fc8:	017c7933          	and	s2,s8,s7
    pa0 = walkaddr(pagetable, va0);
    80001fcc:	00090593          	mv	a1,s2
    80001fd0:	000b0513          	mv	a0,s6
    80001fd4:	fffff097          	auipc	ra,0xfffff
    80001fd8:	644080e7          	jalr	1604(ra) # 80001618 <walkaddr>
    if(pa0 == 0)
    80001fdc:	02050463          	beqz	a0,80002004 <copyout+0xb4>
    n = PGSIZE - (dstva - va0);
    80001fe0:	418904b3          	sub	s1,s2,s8
    80001fe4:	015484b3          	add	s1,s1,s5
    80001fe8:	fa99fce3          	bgeu	s3,s1,80001fa0 <copyout+0x50>
    80001fec:	00098493          	mv	s1,s3
    80001ff0:	fb1ff06f          	j	80001fa0 <copyout+0x50>
  }
  return 0;
    80001ff4:	00000513          	li	a0,0
    80001ff8:	0100006f          	j	80002008 <copyout+0xb8>
    80001ffc:	00000513          	li	a0,0
}
    80002000:	00008067          	ret
      return -1;
    80002004:	fff00513          	li	a0,-1
}
    80002008:	04813083          	ld	ra,72(sp)
    8000200c:	04013403          	ld	s0,64(sp)
    80002010:	03813483          	ld	s1,56(sp)
    80002014:	03013903          	ld	s2,48(sp)
    80002018:	02813983          	ld	s3,40(sp)
    8000201c:	02013a03          	ld	s4,32(sp)
    80002020:	01813a83          	ld	s5,24(sp)
    80002024:	01013b03          	ld	s6,16(sp)
    80002028:	00813b83          	ld	s7,8(sp)
    8000202c:	00013c03          	ld	s8,0(sp)
    80002030:	05010113          	add	sp,sp,80
    80002034:	00008067          	ret

0000000080002038 <copyin>:
int
copyin(pagetable_t pagetable, char *dst, uint64 srcva, uint64 len)
{
  uint64 n, va0, pa0;

  while(len > 0){
    80002038:	0a068663          	beqz	a3,800020e4 <copyin+0xac>
{
    8000203c:	fb010113          	add	sp,sp,-80
    80002040:	04113423          	sd	ra,72(sp)
    80002044:	04813023          	sd	s0,64(sp)
    80002048:	02913c23          	sd	s1,56(sp)
    8000204c:	03213823          	sd	s2,48(sp)
    80002050:	03313423          	sd	s3,40(sp)
    80002054:	03413023          	sd	s4,32(sp)
    80002058:	01513c23          	sd	s5,24(sp)
    8000205c:	01613823          	sd	s6,16(sp)
    80002060:	01713423          	sd	s7,8(sp)
    80002064:	01813023          	sd	s8,0(sp)
    80002068:	05010413          	add	s0,sp,80
    8000206c:	00050b13          	mv	s6,a0
    80002070:	00058a13          	mv	s4,a1
    80002074:	00060c13          	mv	s8,a2
    80002078:	00068993          	mv	s3,a3
    va0 = PGROUNDDOWN(srcva);
    8000207c:	fffffbb7          	lui	s7,0xfffff
    pa0 = walkaddr(pagetable, va0);
    if(pa0 == 0)
      return -1;
    n = PGSIZE - (srcva - va0);
    80002080:	00001ab7          	lui	s5,0x1
    80002084:	02c0006f          	j	800020b0 <copyin+0x78>
    if(n > len)
      n = len;
    memmove(dst, (void *)(pa0 + (srcva - va0)), n);
    80002088:	018505b3          	add	a1,a0,s8
    8000208c:	0004861b          	sext.w	a2,s1
    80002090:	412585b3          	sub	a1,a1,s2
    80002094:	000a0513          	mv	a0,s4
    80002098:	fffff097          	auipc	ra,0xfffff
    8000209c:	118080e7          	jalr	280(ra) # 800011b0 <memmove>

    len -= n;
    800020a0:	409989b3          	sub	s3,s3,s1
    dst += n;
    800020a4:	009a0a33          	add	s4,s4,s1
    srcva = va0 + PGSIZE;
    800020a8:	01590c33          	add	s8,s2,s5
  while(len > 0){
    800020ac:	02098863          	beqz	s3,800020dc <copyin+0xa4>
    va0 = PGROUNDDOWN(srcva);
    800020b0:	017c7933          	and	s2,s8,s7
    pa0 = walkaddr(pagetable, va0);
    800020b4:	00090593          	mv	a1,s2
    800020b8:	000b0513          	mv	a0,s6
    800020bc:	fffff097          	auipc	ra,0xfffff
    800020c0:	55c080e7          	jalr	1372(ra) # 80001618 <walkaddr>
    if(pa0 == 0)
    800020c4:	02050463          	beqz	a0,800020ec <copyin+0xb4>
    n = PGSIZE - (srcva - va0);
    800020c8:	418904b3          	sub	s1,s2,s8
    800020cc:	015484b3          	add	s1,s1,s5
    800020d0:	fa99fce3          	bgeu	s3,s1,80002088 <copyin+0x50>
    800020d4:	00098493          	mv	s1,s3
    800020d8:	fb1ff06f          	j	80002088 <copyin+0x50>
  }
  return 0;
    800020dc:	00000513          	li	a0,0
    800020e0:	0100006f          	j	800020f0 <copyin+0xb8>
    800020e4:	00000513          	li	a0,0
}
    800020e8:	00008067          	ret
      return -1;
    800020ec:	fff00513          	li	a0,-1
}
    800020f0:	04813083          	ld	ra,72(sp)
    800020f4:	04013403          	ld	s0,64(sp)
    800020f8:	03813483          	ld	s1,56(sp)
    800020fc:	03013903          	ld	s2,48(sp)
    80002100:	02813983          	ld	s3,40(sp)
    80002104:	02013a03          	ld	s4,32(sp)
    80002108:	01813a83          	ld	s5,24(sp)
    8000210c:	01013b03          	ld	s6,16(sp)
    80002110:	00813b83          	ld	s7,8(sp)
    80002114:	00013c03          	ld	s8,0(sp)
    80002118:	05010113          	add	sp,sp,80
    8000211c:	00008067          	ret

0000000080002120 <copyinstr>:
copyinstr(pagetable_t pagetable, char *dst, uint64 srcva, uint64 max)
{
  uint64 n, va0, pa0;
  int got_null = 0;

  while(got_null == 0 && max > 0){
    80002120:	10068a63          	beqz	a3,80002234 <copyinstr+0x114>
{
    80002124:	fb010113          	add	sp,sp,-80
    80002128:	04113423          	sd	ra,72(sp)
    8000212c:	04813023          	sd	s0,64(sp)
    80002130:	02913c23          	sd	s1,56(sp)
    80002134:	03213823          	sd	s2,48(sp)
    80002138:	03313423          	sd	s3,40(sp)
    8000213c:	03413023          	sd	s4,32(sp)
    80002140:	01513c23          	sd	s5,24(sp)
    80002144:	01613823          	sd	s6,16(sp)
    80002148:	01713423          	sd	s7,8(sp)
    8000214c:	05010413          	add	s0,sp,80
    80002150:	00050a13          	mv	s4,a0
    80002154:	00058b13          	mv	s6,a1
    80002158:	00060b93          	mv	s7,a2
    8000215c:	00068493          	mv	s1,a3
    va0 = PGROUNDDOWN(srcva);
    80002160:	fffffab7          	lui	s5,0xfffff
    pa0 = walkaddr(pagetable, va0);
    if(pa0 == 0)
      return -1;
    n = PGSIZE - (srcva - va0);
    80002164:	000019b7          	lui	s3,0x1
    80002168:	0480006f          	j	800021b0 <copyinstr+0x90>
      n = max;

    char *p = (char *) (pa0 + (srcva - va0));
    while(n > 0){
      if(*p == '\0'){
        *dst = '\0';
    8000216c:	00078023          	sb	zero,0(a5) # 1000 <_entry-0x7ffff000>
    80002170:	00100793          	li	a5,1
      dst++;
    }

    srcva = va0 + PGSIZE;
  }
  if(got_null){
    80002174:	fff7879b          	addw	a5,a5,-1
    80002178:	0007851b          	sext.w	a0,a5
    return 0;
  } else {
    return -1;
  }
}
    8000217c:	04813083          	ld	ra,72(sp)
    80002180:	04013403          	ld	s0,64(sp)
    80002184:	03813483          	ld	s1,56(sp)
    80002188:	03013903          	ld	s2,48(sp)
    8000218c:	02813983          	ld	s3,40(sp)
    80002190:	02013a03          	ld	s4,32(sp)
    80002194:	01813a83          	ld	s5,24(sp)
    80002198:	01013b03          	ld	s6,16(sp)
    8000219c:	00813b83          	ld	s7,8(sp)
    800021a0:	05010113          	add	sp,sp,80
    800021a4:	00008067          	ret
    srcva = va0 + PGSIZE;
    800021a8:	01390bb3          	add	s7,s2,s3
  while(got_null == 0 && max > 0){
    800021ac:	06048c63          	beqz	s1,80002224 <copyinstr+0x104>
    va0 = PGROUNDDOWN(srcva);
    800021b0:	015bf933          	and	s2,s7,s5
    pa0 = walkaddr(pagetable, va0);
    800021b4:	00090593          	mv	a1,s2
    800021b8:	000a0513          	mv	a0,s4
    800021bc:	fffff097          	auipc	ra,0xfffff
    800021c0:	45c080e7          	jalr	1116(ra) # 80001618 <walkaddr>
    if(pa0 == 0)
    800021c4:	06050463          	beqz	a0,8000222c <copyinstr+0x10c>
    n = PGSIZE - (srcva - va0);
    800021c8:	417906b3          	sub	a3,s2,s7
    800021cc:	013686b3          	add	a3,a3,s3
    800021d0:	00d4f463          	bgeu	s1,a3,800021d8 <copyinstr+0xb8>
    800021d4:	00048693          	mv	a3,s1
    char *p = (char *) (pa0 + (srcva - va0));
    800021d8:	01750533          	add	a0,a0,s7
    800021dc:	41250533          	sub	a0,a0,s2
    while(n > 0){
    800021e0:	fc0684e3          	beqz	a3,800021a8 <copyinstr+0x88>
    800021e4:	000b0793          	mv	a5,s6
    800021e8:	000b0813          	mv	a6,s6
      if(*p == '\0'){
    800021ec:	41650633          	sub	a2,a0,s6
    while(n > 0){
    800021f0:	00db06b3          	add	a3,s6,a3
    800021f4:	00078593          	mv	a1,a5
      if(*p == '\0'){
    800021f8:	00f60733          	add	a4,a2,a5
    800021fc:	00074703          	lbu	a4,0(a4) # fffffffffffff000 <end+0xffffffff7ffdb200>
    80002200:	f60706e3          	beqz	a4,8000216c <copyinstr+0x4c>
        *dst = *p;
    80002204:	00e78023          	sb	a4,0(a5)
      dst++;
    80002208:	00178793          	add	a5,a5,1
    while(n > 0){
    8000220c:	fed794e3          	bne	a5,a3,800021f4 <copyinstr+0xd4>
    80002210:	fff48493          	add	s1,s1,-1
    80002214:	010484b3          	add	s1,s1,a6
      --max;
    80002218:	40b484b3          	sub	s1,s1,a1
      dst++;
    8000221c:	00078b13          	mv	s6,a5
    80002220:	f89ff06f          	j	800021a8 <copyinstr+0x88>
    80002224:	00000793          	li	a5,0
    80002228:	f4dff06f          	j	80002174 <copyinstr+0x54>
      return -1;
    8000222c:	fff00513          	li	a0,-1
    80002230:	f4dff06f          	j	8000217c <copyinstr+0x5c>
  int got_null = 0;
    80002234:	00000793          	li	a5,0
  if(got_null){
    80002238:	fff7879b          	addw	a5,a5,-1
    8000223c:	0007851b          	sext.w	a0,a5
}
    80002240:	00008067          	ret

0000000080002244 <proc_mapstacks>:
// Allocate a page for each process's kernel stack.
// Map it high in memory, followed by an invalid
// guard page.
void
proc_mapstacks(pagetable_t kpgtbl)
{
    80002244:	fc010113          	add	sp,sp,-64
    80002248:	02113c23          	sd	ra,56(sp)
    8000224c:	02813823          	sd	s0,48(sp)
    80002250:	02913423          	sd	s1,40(sp)
    80002254:	03213023          	sd	s2,32(sp)
    80002258:	01313c23          	sd	s3,24(sp)
    8000225c:	01413823          	sd	s4,16(sp)
    80002260:	01513423          	sd	s5,8(sp)
    80002264:	01613023          	sd	s6,0(sp)
    80002268:	04010413          	add	s0,sp,64
    8000226c:	00050993          	mv	s3,a0
  struct proc *p;
  
  for(p = proc; p < &proc[NPROC]; p++) {
    80002270:	00011497          	auipc	s1,0x11
    80002274:	db048493          	add	s1,s1,-592 # 80013020 <proc>
    char *pa = kalloc();
    if(pa == 0)
      panic("kalloc");
    uint64 va = KSTACK((int) (p - proc));
    80002278:	00048b13          	mv	s6,s1
    8000227c:	00008a97          	auipc	s5,0x8
    80002280:	d84a8a93          	add	s5,s5,-636 # 8000a000 <etext>
    80002284:	04000937          	lui	s2,0x4000
    80002288:	fff90913          	add	s2,s2,-1 # 3ffffff <_entry-0x7c000001>
    8000228c:	00c91913          	sll	s2,s2,0xc
  for(p = proc; p < &proc[NPROC]; p++) {
    80002290:	00016a17          	auipc	s4,0x16
    80002294:	790a0a13          	add	s4,s4,1936 # 80018a20 <tickslock>
    char *pa = kalloc();
    80002298:	fffff097          	auipc	ra,0xfffff
    8000229c:	bc0080e7          	jalr	-1088(ra) # 80000e58 <kalloc>
    800022a0:	00050613          	mv	a2,a0
    if(pa == 0)
    800022a4:	06050263          	beqz	a0,80002308 <proc_mapstacks+0xc4>
    uint64 va = KSTACK((int) (p - proc));
    800022a8:	416485b3          	sub	a1,s1,s6
    800022ac:	4035d593          	sra	a1,a1,0x3
    800022b0:	000ab783          	ld	a5,0(s5)
    800022b4:	02f585b3          	mul	a1,a1,a5
    800022b8:	0015859b          	addw	a1,a1,1
    800022bc:	00d5959b          	sllw	a1,a1,0xd
    kvmmap(kpgtbl, va, (uint64)pa, PGSIZE, PTE_R | PTE_W);
    800022c0:	00600713          	li	a4,6
    800022c4:	000016b7          	lui	a3,0x1
    800022c8:	40b905b3          	sub	a1,s2,a1
    800022cc:	00098513          	mv	a0,s3
    800022d0:	fffff097          	auipc	ra,0xfffff
    800022d4:	4ac080e7          	jalr	1196(ra) # 8000177c <kvmmap>
  for(p = proc; p < &proc[NPROC]; p++) {
    800022d8:	16848493          	add	s1,s1,360
    800022dc:	fb449ee3          	bne	s1,s4,80002298 <proc_mapstacks+0x54>
  }
}
    800022e0:	03813083          	ld	ra,56(sp)
    800022e4:	03013403          	ld	s0,48(sp)
    800022e8:	02813483          	ld	s1,40(sp)
    800022ec:	02013903          	ld	s2,32(sp)
    800022f0:	01813983          	ld	s3,24(sp)
    800022f4:	01013a03          	ld	s4,16(sp)
    800022f8:	00813a83          	ld	s5,8(sp)
    800022fc:	00013b03          	ld	s6,0(sp)
    80002300:	04010113          	add	sp,sp,64
    80002304:	00008067          	ret
      panic("kalloc");
    80002308:	00008517          	auipc	a0,0x8
    8000230c:	f8850513          	add	a0,a0,-120 # 8000a290 <digits+0x250>
    80002310:	ffffe097          	auipc	ra,0xffffe
    80002314:	3b8080e7          	jalr	952(ra) # 800006c8 <panic>

0000000080002318 <procinit>:

// initialize the proc table.
void
procinit(void)
{
    80002318:	fc010113          	add	sp,sp,-64
    8000231c:	02113c23          	sd	ra,56(sp)
    80002320:	02813823          	sd	s0,48(sp)
    80002324:	02913423          	sd	s1,40(sp)
    80002328:	03213023          	sd	s2,32(sp)
    8000232c:	01313c23          	sd	s3,24(sp)
    80002330:	01413823          	sd	s4,16(sp)
    80002334:	01513423          	sd	s5,8(sp)
    80002338:	01613023          	sd	s6,0(sp)
    8000233c:	04010413          	add	s0,sp,64
  struct proc *p;
  
  initlock(&pid_lock, "nextpid");
    80002340:	00008597          	auipc	a1,0x8
    80002344:	f5858593          	add	a1,a1,-168 # 8000a298 <digits+0x258>
    80002348:	00011517          	auipc	a0,0x11
    8000234c:	8a850513          	add	a0,a0,-1880 # 80012bf0 <pid_lock>
    80002350:	fffff097          	auipc	ra,0xfffff
    80002354:	b90080e7          	jalr	-1136(ra) # 80000ee0 <initlock>
  initlock(&wait_lock, "wait_lock");
    80002358:	00008597          	auipc	a1,0x8
    8000235c:	f4858593          	add	a1,a1,-184 # 8000a2a0 <digits+0x260>
    80002360:	00011517          	auipc	a0,0x11
    80002364:	8a850513          	add	a0,a0,-1880 # 80012c08 <wait_lock>
    80002368:	fffff097          	auipc	ra,0xfffff
    8000236c:	b78080e7          	jalr	-1160(ra) # 80000ee0 <initlock>
  for(p = proc; p < &proc[NPROC]; p++) {
    80002370:	00011497          	auipc	s1,0x11
    80002374:	cb048493          	add	s1,s1,-848 # 80013020 <proc>
      initlock(&p->lock, "proc");
    80002378:	00008b17          	auipc	s6,0x8
    8000237c:	f38b0b13          	add	s6,s6,-200 # 8000a2b0 <digits+0x270>
      p->state = UNUSED;
      p->kstack = KSTACK((int) (p - proc));
    80002380:	00048a93          	mv	s5,s1
    80002384:	00008a17          	auipc	s4,0x8
    80002388:	c7ca0a13          	add	s4,s4,-900 # 8000a000 <etext>
    8000238c:	04000937          	lui	s2,0x4000
    80002390:	fff90913          	add	s2,s2,-1 # 3ffffff <_entry-0x7c000001>
    80002394:	00c91913          	sll	s2,s2,0xc
  for(p = proc; p < &proc[NPROC]; p++) {
    80002398:	00016997          	auipc	s3,0x16
    8000239c:	68898993          	add	s3,s3,1672 # 80018a20 <tickslock>
      initlock(&p->lock, "proc");
    800023a0:	000b0593          	mv	a1,s6
    800023a4:	00048513          	mv	a0,s1
    800023a8:	fffff097          	auipc	ra,0xfffff
    800023ac:	b38080e7          	jalr	-1224(ra) # 80000ee0 <initlock>
      p->state = UNUSED;
    800023b0:	0004ac23          	sw	zero,24(s1)
      p->kstack = KSTACK((int) (p - proc));
    800023b4:	415487b3          	sub	a5,s1,s5
    800023b8:	4037d793          	sra	a5,a5,0x3
    800023bc:	000a3703          	ld	a4,0(s4)
    800023c0:	02e787b3          	mul	a5,a5,a4
    800023c4:	0017879b          	addw	a5,a5,1
    800023c8:	00d7979b          	sllw	a5,a5,0xd
    800023cc:	40f907b3          	sub	a5,s2,a5
    800023d0:	04f4b023          	sd	a5,64(s1)
  for(p = proc; p < &proc[NPROC]; p++) {
    800023d4:	16848493          	add	s1,s1,360
    800023d8:	fd3494e3          	bne	s1,s3,800023a0 <procinit+0x88>
  }
}
    800023dc:	03813083          	ld	ra,56(sp)
    800023e0:	03013403          	ld	s0,48(sp)
    800023e4:	02813483          	ld	s1,40(sp)
    800023e8:	02013903          	ld	s2,32(sp)
    800023ec:	01813983          	ld	s3,24(sp)
    800023f0:	01013a03          	ld	s4,16(sp)
    800023f4:	00813a83          	ld	s5,8(sp)
    800023f8:	00013b03          	ld	s6,0(sp)
    800023fc:	04010113          	add	sp,sp,64
    80002400:	00008067          	ret

0000000080002404 <cpuid>:
// Must be called with interrupts disabled,
// to prevent race with process being moved
// to a different CPU.
int
cpuid()
{
    80002404:	ff010113          	add	sp,sp,-16
    80002408:	00813423          	sd	s0,8(sp)
    8000240c:	01010413          	add	s0,sp,16
  asm volatile("mv %0, tp" : "=r" (x) );
    80002410:	00020513          	mv	a0,tp
  int id = r_tp();
  return id;
}
    80002414:	0005051b          	sext.w	a0,a0
    80002418:	00813403          	ld	s0,8(sp)
    8000241c:	01010113          	add	sp,sp,16
    80002420:	00008067          	ret

0000000080002424 <mycpu>:

// Return this CPU's cpu struct.
// Interrupts must be disabled.
struct cpu*
mycpu(void)
{
    80002424:	ff010113          	add	sp,sp,-16
    80002428:	00813423          	sd	s0,8(sp)
    8000242c:	01010413          	add	s0,sp,16
    80002430:	00020793          	mv	a5,tp
  int id = cpuid();
  struct cpu *c = &cpus[id];
    80002434:	0007879b          	sext.w	a5,a5
    80002438:	00779793          	sll	a5,a5,0x7
  return c;
}
    8000243c:	00010517          	auipc	a0,0x10
    80002440:	7e450513          	add	a0,a0,2020 # 80012c20 <cpus>
    80002444:	00f50533          	add	a0,a0,a5
    80002448:	00813403          	ld	s0,8(sp)
    8000244c:	01010113          	add	sp,sp,16
    80002450:	00008067          	ret

0000000080002454 <myproc>:

// Return the current struct proc *, or zero if none.
struct proc*
myproc(void)
{
    80002454:	fe010113          	add	sp,sp,-32
    80002458:	00113c23          	sd	ra,24(sp)
    8000245c:	00813823          	sd	s0,16(sp)
    80002460:	00913423          	sd	s1,8(sp)
    80002464:	02010413          	add	s0,sp,32
  push_off();
    80002468:	fffff097          	auipc	ra,0xfffff
    8000246c:	ae8080e7          	jalr	-1304(ra) # 80000f50 <push_off>
    80002470:	00020793          	mv	a5,tp
  struct cpu *c = mycpu();
  struct proc *p = c->proc;
    80002474:	0007879b          	sext.w	a5,a5
    80002478:	00779793          	sll	a5,a5,0x7
    8000247c:	00010717          	auipc	a4,0x10
    80002480:	77470713          	add	a4,a4,1908 # 80012bf0 <pid_lock>
    80002484:	00f707b3          	add	a5,a4,a5
    80002488:	0307b483          	ld	s1,48(a5)
  pop_off();
    8000248c:	fffff097          	auipc	ra,0xfffff
    80002490:	bb0080e7          	jalr	-1104(ra) # 8000103c <pop_off>
  return p;
}
    80002494:	00048513          	mv	a0,s1
    80002498:	01813083          	ld	ra,24(sp)
    8000249c:	01013403          	ld	s0,16(sp)
    800024a0:	00813483          	ld	s1,8(sp)
    800024a4:	02010113          	add	sp,sp,32
    800024a8:	00008067          	ret

00000000800024ac <forkret>:

// A fork child's very first scheduling by scheduler()
// will swtch to forkret.
void
forkret(void)
{
    800024ac:	ff010113          	add	sp,sp,-16
    800024b0:	00113423          	sd	ra,8(sp)
    800024b4:	00813023          	sd	s0,0(sp)
    800024b8:	01010413          	add	s0,sp,16
  static int first = 1;

  // Still holding p->lock from scheduler.
  release(&myproc()->lock);
    800024bc:	00000097          	auipc	ra,0x0
    800024c0:	f98080e7          	jalr	-104(ra) # 80002454 <myproc>
    800024c4:	fffff097          	auipc	ra,0xfffff
    800024c8:	bf8080e7          	jalr	-1032(ra) # 800010bc <release>

  if (first) {
    800024cc:	00008797          	auipc	a5,0x8
    800024d0:	4347a783          	lw	a5,1076(a5) # 8000a900 <first.1>
    800024d4:	00079e63          	bnez	a5,800024f0 <forkret+0x44>
    // be run from main().
    first = 0;
    fsinit(ROOTDEV);
  }

  usertrapret();
    800024d8:	00001097          	auipc	ra,0x1
    800024dc:	140080e7          	jalr	320(ra) # 80003618 <usertrapret>
}
    800024e0:	00813083          	ld	ra,8(sp)
    800024e4:	00013403          	ld	s0,0(sp)
    800024e8:	01010113          	add	sp,sp,16
    800024ec:	00008067          	ret
    first = 0;
    800024f0:	00008797          	auipc	a5,0x8
    800024f4:	4007a823          	sw	zero,1040(a5) # 8000a900 <first.1>
    fsinit(ROOTDEV);
    800024f8:	00100513          	li	a0,1
    800024fc:	00002097          	auipc	ra,0x2
    80002500:	384080e7          	jalr	900(ra) # 80004880 <fsinit>
    80002504:	fd5ff06f          	j	800024d8 <forkret+0x2c>

0000000080002508 <allocpid>:
{
    80002508:	fe010113          	add	sp,sp,-32
    8000250c:	00113c23          	sd	ra,24(sp)
    80002510:	00813823          	sd	s0,16(sp)
    80002514:	00913423          	sd	s1,8(sp)
    80002518:	01213023          	sd	s2,0(sp)
    8000251c:	02010413          	add	s0,sp,32
  acquire(&pid_lock);
    80002520:	00010917          	auipc	s2,0x10
    80002524:	6d090913          	add	s2,s2,1744 # 80012bf0 <pid_lock>
    80002528:	00090513          	mv	a0,s2
    8000252c:	fffff097          	auipc	ra,0xfffff
    80002530:	a98080e7          	jalr	-1384(ra) # 80000fc4 <acquire>
  pid = nextpid;
    80002534:	00008797          	auipc	a5,0x8
    80002538:	3d078793          	add	a5,a5,976 # 8000a904 <nextpid>
    8000253c:	0007a483          	lw	s1,0(a5)
  nextpid = nextpid + 1;
    80002540:	0014871b          	addw	a4,s1,1
    80002544:	00e7a023          	sw	a4,0(a5)
  release(&pid_lock);
    80002548:	00090513          	mv	a0,s2
    8000254c:	fffff097          	auipc	ra,0xfffff
    80002550:	b70080e7          	jalr	-1168(ra) # 800010bc <release>
}
    80002554:	00048513          	mv	a0,s1
    80002558:	01813083          	ld	ra,24(sp)
    8000255c:	01013403          	ld	s0,16(sp)
    80002560:	00813483          	ld	s1,8(sp)
    80002564:	00013903          	ld	s2,0(sp)
    80002568:	02010113          	add	sp,sp,32
    8000256c:	00008067          	ret

0000000080002570 <proc_pagetable>:
{
    80002570:	fe010113          	add	sp,sp,-32
    80002574:	00113c23          	sd	ra,24(sp)
    80002578:	00813823          	sd	s0,16(sp)
    8000257c:	00913423          	sd	s1,8(sp)
    80002580:	01213023          	sd	s2,0(sp)
    80002584:	02010413          	add	s0,sp,32
    80002588:	00050913          	mv	s2,a0
  pagetable = uvmcreate();
    8000258c:	fffff097          	auipc	ra,0xfffff
    80002590:	4a4080e7          	jalr	1188(ra) # 80001a30 <uvmcreate>
    80002594:	00050493          	mv	s1,a0
  if(pagetable == 0)
    80002598:	04050a63          	beqz	a0,800025ec <proc_pagetable+0x7c>
  if(mappages(pagetable, TRAMPOLINE, PGSIZE,
    8000259c:	00a00713          	li	a4,10
    800025a0:	00007697          	auipc	a3,0x7
    800025a4:	a6068693          	add	a3,a3,-1440 # 80009000 <_trampoline>
    800025a8:	00001637          	lui	a2,0x1
    800025ac:	040005b7          	lui	a1,0x4000
    800025b0:	fff58593          	add	a1,a1,-1 # 3ffffff <_entry-0x7c000001>
    800025b4:	00c59593          	sll	a1,a1,0xc
    800025b8:	fffff097          	auipc	ra,0xfffff
    800025bc:	0cc080e7          	jalr	204(ra) # 80001684 <mappages>
    800025c0:	04054463          	bltz	a0,80002608 <proc_pagetable+0x98>
  if(mappages(pagetable, TRAPFRAME, PGSIZE,
    800025c4:	00600713          	li	a4,6
    800025c8:	05893683          	ld	a3,88(s2)
    800025cc:	00001637          	lui	a2,0x1
    800025d0:	020005b7          	lui	a1,0x2000
    800025d4:	fff58593          	add	a1,a1,-1 # 1ffffff <_entry-0x7e000001>
    800025d8:	00d59593          	sll	a1,a1,0xd
    800025dc:	00048513          	mv	a0,s1
    800025e0:	fffff097          	auipc	ra,0xfffff
    800025e4:	0a4080e7          	jalr	164(ra) # 80001684 <mappages>
    800025e8:	02054c63          	bltz	a0,80002620 <proc_pagetable+0xb0>
}
    800025ec:	00048513          	mv	a0,s1
    800025f0:	01813083          	ld	ra,24(sp)
    800025f4:	01013403          	ld	s0,16(sp)
    800025f8:	00813483          	ld	s1,8(sp)
    800025fc:	00013903          	ld	s2,0(sp)
    80002600:	02010113          	add	sp,sp,32
    80002604:	00008067          	ret
    uvmfree(pagetable, 0);
    80002608:	00000593          	li	a1,0
    8000260c:	00048513          	mv	a0,s1
    80002610:	fffff097          	auipc	ra,0xfffff
    80002614:	758080e7          	jalr	1880(ra) # 80001d68 <uvmfree>
    return 0;
    80002618:	00000493          	li	s1,0
    8000261c:	fd1ff06f          	j	800025ec <proc_pagetable+0x7c>
    uvmunmap(pagetable, TRAMPOLINE, 1, 0);
    80002620:	00000693          	li	a3,0
    80002624:	00100613          	li	a2,1
    80002628:	040005b7          	lui	a1,0x4000
    8000262c:	fff58593          	add	a1,a1,-1 # 3ffffff <_entry-0x7c000001>
    80002630:	00c59593          	sll	a1,a1,0xc
    80002634:	00048513          	mv	a0,s1
    80002638:	fffff097          	auipc	ra,0xfffff
    8000263c:	2e4080e7          	jalr	740(ra) # 8000191c <uvmunmap>
    uvmfree(pagetable, 0);
    80002640:	00000593          	li	a1,0
    80002644:	00048513          	mv	a0,s1
    80002648:	fffff097          	auipc	ra,0xfffff
    8000264c:	720080e7          	jalr	1824(ra) # 80001d68 <uvmfree>
    return 0;
    80002650:	00000493          	li	s1,0
    80002654:	f99ff06f          	j	800025ec <proc_pagetable+0x7c>

0000000080002658 <proc_freepagetable>:
{
    80002658:	fe010113          	add	sp,sp,-32
    8000265c:	00113c23          	sd	ra,24(sp)
    80002660:	00813823          	sd	s0,16(sp)
    80002664:	00913423          	sd	s1,8(sp)
    80002668:	01213023          	sd	s2,0(sp)
    8000266c:	02010413          	add	s0,sp,32
    80002670:	00050493          	mv	s1,a0
    80002674:	00058913          	mv	s2,a1
  uvmunmap(pagetable, TRAMPOLINE, 1, 0);
    80002678:	00000693          	li	a3,0
    8000267c:	00100613          	li	a2,1
    80002680:	040005b7          	lui	a1,0x4000
    80002684:	fff58593          	add	a1,a1,-1 # 3ffffff <_entry-0x7c000001>
    80002688:	00c59593          	sll	a1,a1,0xc
    8000268c:	fffff097          	auipc	ra,0xfffff
    80002690:	290080e7          	jalr	656(ra) # 8000191c <uvmunmap>
  uvmunmap(pagetable, TRAPFRAME, 1, 0);
    80002694:	00000693          	li	a3,0
    80002698:	00100613          	li	a2,1
    8000269c:	020005b7          	lui	a1,0x2000
    800026a0:	fff58593          	add	a1,a1,-1 # 1ffffff <_entry-0x7e000001>
    800026a4:	00d59593          	sll	a1,a1,0xd
    800026a8:	00048513          	mv	a0,s1
    800026ac:	fffff097          	auipc	ra,0xfffff
    800026b0:	270080e7          	jalr	624(ra) # 8000191c <uvmunmap>
  uvmfree(pagetable, sz);
    800026b4:	00090593          	mv	a1,s2
    800026b8:	00048513          	mv	a0,s1
    800026bc:	fffff097          	auipc	ra,0xfffff
    800026c0:	6ac080e7          	jalr	1708(ra) # 80001d68 <uvmfree>
}
    800026c4:	01813083          	ld	ra,24(sp)
    800026c8:	01013403          	ld	s0,16(sp)
    800026cc:	00813483          	ld	s1,8(sp)
    800026d0:	00013903          	ld	s2,0(sp)
    800026d4:	02010113          	add	sp,sp,32
    800026d8:	00008067          	ret

00000000800026dc <freeproc>:
{
    800026dc:	fe010113          	add	sp,sp,-32
    800026e0:	00113c23          	sd	ra,24(sp)
    800026e4:	00813823          	sd	s0,16(sp)
    800026e8:	00913423          	sd	s1,8(sp)
    800026ec:	02010413          	add	s0,sp,32
    800026f0:	00050493          	mv	s1,a0
  if(p->trapframe)
    800026f4:	05853503          	ld	a0,88(a0)
    800026f8:	00050663          	beqz	a0,80002704 <freeproc+0x28>
    kfree((void*)p->trapframe);
    800026fc:	ffffe097          	auipc	ra,0xffffe
    80002700:	5f0080e7          	jalr	1520(ra) # 80000cec <kfree>
  p->trapframe = 0;
    80002704:	0404bc23          	sd	zero,88(s1)
  if(p->pagetable)
    80002708:	0504b503          	ld	a0,80(s1)
    8000270c:	00050863          	beqz	a0,8000271c <freeproc+0x40>
    proc_freepagetable(p->pagetable, p->sz);
    80002710:	0484b583          	ld	a1,72(s1)
    80002714:	00000097          	auipc	ra,0x0
    80002718:	f44080e7          	jalr	-188(ra) # 80002658 <proc_freepagetable>
  p->pagetable = 0;
    8000271c:	0404b823          	sd	zero,80(s1)
  p->sz = 0;
    80002720:	0404b423          	sd	zero,72(s1)
  p->pid = 0;
    80002724:	0204a823          	sw	zero,48(s1)
  p->parent = 0;
    80002728:	0204bc23          	sd	zero,56(s1)
  p->name[0] = 0;
    8000272c:	14048c23          	sb	zero,344(s1)
  p->chan = 0;
    80002730:	0204b023          	sd	zero,32(s1)
  p->killed = 0;
    80002734:	0204a423          	sw	zero,40(s1)
  p->xstate = 0;
    80002738:	0204a623          	sw	zero,44(s1)
  p->state = UNUSED;
    8000273c:	0004ac23          	sw	zero,24(s1)
}
    80002740:	01813083          	ld	ra,24(sp)
    80002744:	01013403          	ld	s0,16(sp)
    80002748:	00813483          	ld	s1,8(sp)
    8000274c:	02010113          	add	sp,sp,32
    80002750:	00008067          	ret

0000000080002754 <allocproc>:
{
    80002754:	fe010113          	add	sp,sp,-32
    80002758:	00113c23          	sd	ra,24(sp)
    8000275c:	00813823          	sd	s0,16(sp)
    80002760:	00913423          	sd	s1,8(sp)
    80002764:	01213023          	sd	s2,0(sp)
    80002768:	02010413          	add	s0,sp,32
  for(p = proc; p < &proc[NPROC]; p++) {
    8000276c:	00011497          	auipc	s1,0x11
    80002770:	8b448493          	add	s1,s1,-1868 # 80013020 <proc>
    80002774:	00016917          	auipc	s2,0x16
    80002778:	2ac90913          	add	s2,s2,684 # 80018a20 <tickslock>
    acquire(&p->lock);
    8000277c:	00048513          	mv	a0,s1
    80002780:	fffff097          	auipc	ra,0xfffff
    80002784:	844080e7          	jalr	-1980(ra) # 80000fc4 <acquire>
    if(p->state == UNUSED) {
    80002788:	0184a783          	lw	a5,24(s1)
    8000278c:	02078063          	beqz	a5,800027ac <allocproc+0x58>
      release(&p->lock);
    80002790:	00048513          	mv	a0,s1
    80002794:	fffff097          	auipc	ra,0xfffff
    80002798:	928080e7          	jalr	-1752(ra) # 800010bc <release>
  for(p = proc; p < &proc[NPROC]; p++) {
    8000279c:	16848493          	add	s1,s1,360
    800027a0:	fd249ee3          	bne	s1,s2,8000277c <allocproc+0x28>
  return 0;
    800027a4:	00000493          	li	s1,0
    800027a8:	0740006f          	j	8000281c <allocproc+0xc8>
  p->pid = allocpid();
    800027ac:	00000097          	auipc	ra,0x0
    800027b0:	d5c080e7          	jalr	-676(ra) # 80002508 <allocpid>
    800027b4:	02a4a823          	sw	a0,48(s1)
  p->state = USED;
    800027b8:	00100793          	li	a5,1
    800027bc:	00f4ac23          	sw	a5,24(s1)
  if((p->trapframe = (struct trapframe *)kalloc()) == 0){
    800027c0:	ffffe097          	auipc	ra,0xffffe
    800027c4:	698080e7          	jalr	1688(ra) # 80000e58 <kalloc>
    800027c8:	00050913          	mv	s2,a0
    800027cc:	04a4bc23          	sd	a0,88(s1)
    800027d0:	06050463          	beqz	a0,80002838 <allocproc+0xe4>
  p->pagetable = proc_pagetable(p);
    800027d4:	00048513          	mv	a0,s1
    800027d8:	00000097          	auipc	ra,0x0
    800027dc:	d98080e7          	jalr	-616(ra) # 80002570 <proc_pagetable>
    800027e0:	00050913          	mv	s2,a0
    800027e4:	04a4b823          	sd	a0,80(s1)
  if(p->pagetable == 0){
    800027e8:	06050863          	beqz	a0,80002858 <allocproc+0x104>
  memset(&p->context, 0, sizeof(p->context));
    800027ec:	07000613          	li	a2,112
    800027f0:	00000593          	li	a1,0
    800027f4:	06048513          	add	a0,s1,96
    800027f8:	fffff097          	auipc	ra,0xfffff
    800027fc:	924080e7          	jalr	-1756(ra) # 8000111c <memset>
  p->context.ra = (uint64)forkret;
    80002800:	00000797          	auipc	a5,0x0
    80002804:	cac78793          	add	a5,a5,-852 # 800024ac <forkret>
    80002808:	06f4b023          	sd	a5,96(s1)
  p->context.sp = p->kstack + PGSIZE;
    8000280c:	0404b783          	ld	a5,64(s1)
    80002810:	00001737          	lui	a4,0x1
    80002814:	00e787b3          	add	a5,a5,a4
    80002818:	06f4b423          	sd	a5,104(s1)
}
    8000281c:	00048513          	mv	a0,s1
    80002820:	01813083          	ld	ra,24(sp)
    80002824:	01013403          	ld	s0,16(sp)
    80002828:	00813483          	ld	s1,8(sp)
    8000282c:	00013903          	ld	s2,0(sp)
    80002830:	02010113          	add	sp,sp,32
    80002834:	00008067          	ret
    freeproc(p);
    80002838:	00048513          	mv	a0,s1
    8000283c:	00000097          	auipc	ra,0x0
    80002840:	ea0080e7          	jalr	-352(ra) # 800026dc <freeproc>
    release(&p->lock);
    80002844:	00048513          	mv	a0,s1
    80002848:	fffff097          	auipc	ra,0xfffff
    8000284c:	874080e7          	jalr	-1932(ra) # 800010bc <release>
    return 0;
    80002850:	00090493          	mv	s1,s2
    80002854:	fc9ff06f          	j	8000281c <allocproc+0xc8>
    freeproc(p);
    80002858:	00048513          	mv	a0,s1
    8000285c:	00000097          	auipc	ra,0x0
    80002860:	e80080e7          	jalr	-384(ra) # 800026dc <freeproc>
    release(&p->lock);
    80002864:	00048513          	mv	a0,s1
    80002868:	fffff097          	auipc	ra,0xfffff
    8000286c:	854080e7          	jalr	-1964(ra) # 800010bc <release>
    return 0;
    80002870:	00090493          	mv	s1,s2
    80002874:	fa9ff06f          	j	8000281c <allocproc+0xc8>

0000000080002878 <userinit>:
{
    80002878:	fe010113          	add	sp,sp,-32
    8000287c:	00113c23          	sd	ra,24(sp)
    80002880:	00813823          	sd	s0,16(sp)
    80002884:	00913423          	sd	s1,8(sp)
    80002888:	02010413          	add	s0,sp,32
  p = allocproc();
    8000288c:	00000097          	auipc	ra,0x0
    80002890:	ec8080e7          	jalr	-312(ra) # 80002754 <allocproc>
    80002894:	00050493          	mv	s1,a0
  initproc = p;
    80002898:	00008797          	auipc	a5,0x8
    8000289c:	0ea7b023          	sd	a0,224(a5) # 8000a978 <initproc>
  uvmfirst(p->pagetable, initcode, sizeof(initcode));
    800028a0:	03400613          	li	a2,52
    800028a4:	00008597          	auipc	a1,0x8
    800028a8:	06c58593          	add	a1,a1,108 # 8000a910 <initcode>
    800028ac:	05053503          	ld	a0,80(a0)
    800028b0:	fffff097          	auipc	ra,0xfffff
    800028b4:	1cc080e7          	jalr	460(ra) # 80001a7c <uvmfirst>
  p->sz = PGSIZE;
    800028b8:	000017b7          	lui	a5,0x1
    800028bc:	04f4b423          	sd	a5,72(s1)
  p->trapframe->epc = 0;      // user program counter
    800028c0:	0584b703          	ld	a4,88(s1)
    800028c4:	00073c23          	sd	zero,24(a4) # 1018 <_entry-0x7fffefe8>
  p->trapframe->sp = PGSIZE;  // user stack pointer
    800028c8:	0584b703          	ld	a4,88(s1)
    800028cc:	02f73823          	sd	a5,48(a4)
  safestrcpy(p->name, "initcode", sizeof(p->name));
    800028d0:	01000613          	li	a2,16
    800028d4:	00008597          	auipc	a1,0x8
    800028d8:	9e458593          	add	a1,a1,-1564 # 8000a2b8 <digits+0x278>
    800028dc:	15848513          	add	a0,s1,344
    800028e0:	fffff097          	auipc	ra,0xfffff
    800028e4:	a3c080e7          	jalr	-1476(ra) # 8000131c <safestrcpy>
  p->cwd = namei("/");
    800028e8:	00008517          	auipc	a0,0x8
    800028ec:	9e050513          	add	a0,a0,-1568 # 8000a2c8 <digits+0x288>
    800028f0:	00003097          	auipc	ra,0x3
    800028f4:	dd0080e7          	jalr	-560(ra) # 800056c0 <namei>
    800028f8:	14a4b823          	sd	a0,336(s1)
  p->state = RUNNABLE;
    800028fc:	00300793          	li	a5,3
    80002900:	00f4ac23          	sw	a5,24(s1)
  release(&p->lock);
    80002904:	00048513          	mv	a0,s1
    80002908:	ffffe097          	auipc	ra,0xffffe
    8000290c:	7b4080e7          	jalr	1972(ra) # 800010bc <release>
}
    80002910:	01813083          	ld	ra,24(sp)
    80002914:	01013403          	ld	s0,16(sp)
    80002918:	00813483          	ld	s1,8(sp)
    8000291c:	02010113          	add	sp,sp,32
    80002920:	00008067          	ret

0000000080002924 <growproc>:
{
    80002924:	fe010113          	add	sp,sp,-32
    80002928:	00113c23          	sd	ra,24(sp)
    8000292c:	00813823          	sd	s0,16(sp)
    80002930:	00913423          	sd	s1,8(sp)
    80002934:	01213023          	sd	s2,0(sp)
    80002938:	02010413          	add	s0,sp,32
    8000293c:	00050913          	mv	s2,a0
  struct proc *p = myproc();
    80002940:	00000097          	auipc	ra,0x0
    80002944:	b14080e7          	jalr	-1260(ra) # 80002454 <myproc>
    80002948:	00050493          	mv	s1,a0
  sz = p->sz;
    8000294c:	04853583          	ld	a1,72(a0)
  if(n > 0){
    80002950:	03204463          	bgtz	s2,80002978 <growproc+0x54>
  } else if(n < 0){
    80002954:	04094463          	bltz	s2,8000299c <growproc+0x78>
  p->sz = sz;
    80002958:	04b4b423          	sd	a1,72(s1)
  return 0;
    8000295c:	00000513          	li	a0,0
}
    80002960:	01813083          	ld	ra,24(sp)
    80002964:	01013403          	ld	s0,16(sp)
    80002968:	00813483          	ld	s1,8(sp)
    8000296c:	00013903          	ld	s2,0(sp)
    80002970:	02010113          	add	sp,sp,32
    80002974:	00008067          	ret
    if((sz = uvmalloc(p->pagetable, sz, sz + n, PTE_W)) == 0) {
    80002978:	00400693          	li	a3,4
    8000297c:	00b90633          	add	a2,s2,a1
    80002980:	05053503          	ld	a0,80(a0)
    80002984:	fffff097          	auipc	ra,0xfffff
    80002988:	220080e7          	jalr	544(ra) # 80001ba4 <uvmalloc>
    8000298c:	00050593          	mv	a1,a0
    80002990:	fc0514e3          	bnez	a0,80002958 <growproc+0x34>
      return -1;
    80002994:	fff00513          	li	a0,-1
    80002998:	fc9ff06f          	j	80002960 <growproc+0x3c>
    sz = uvmdealloc(p->pagetable, sz, sz + n);
    8000299c:	00b90633          	add	a2,s2,a1
    800029a0:	05053503          	ld	a0,80(a0)
    800029a4:	fffff097          	auipc	ra,0xfffff
    800029a8:	188080e7          	jalr	392(ra) # 80001b2c <uvmdealloc>
    800029ac:	00050593          	mv	a1,a0
    800029b0:	fa9ff06f          	j	80002958 <growproc+0x34>

00000000800029b4 <fork>:
{
    800029b4:	fc010113          	add	sp,sp,-64
    800029b8:	02113c23          	sd	ra,56(sp)
    800029bc:	02813823          	sd	s0,48(sp)
    800029c0:	02913423          	sd	s1,40(sp)
    800029c4:	03213023          	sd	s2,32(sp)
    800029c8:	01313c23          	sd	s3,24(sp)
    800029cc:	01413823          	sd	s4,16(sp)
    800029d0:	01513423          	sd	s5,8(sp)
    800029d4:	04010413          	add	s0,sp,64
  struct proc *p = myproc();
    800029d8:	00000097          	auipc	ra,0x0
    800029dc:	a7c080e7          	jalr	-1412(ra) # 80002454 <myproc>
    800029e0:	00050a93          	mv	s5,a0
  if((np = allocproc()) == 0){
    800029e4:	00000097          	auipc	ra,0x0
    800029e8:	d70080e7          	jalr	-656(ra) # 80002754 <allocproc>
    800029ec:	16050063          	beqz	a0,80002b4c <fork+0x198>
    800029f0:	00050a13          	mv	s4,a0
  if(uvmcopy(p->pagetable, np->pagetable, p->sz) < 0){
    800029f4:	048ab603          	ld	a2,72(s5)
    800029f8:	05053583          	ld	a1,80(a0)
    800029fc:	050ab503          	ld	a0,80(s5)
    80002a00:	fffff097          	auipc	ra,0xfffff
    80002a04:	3c8080e7          	jalr	968(ra) # 80001dc8 <uvmcopy>
    80002a08:	06054063          	bltz	a0,80002a68 <fork+0xb4>
  np->sz = p->sz;
    80002a0c:	048ab783          	ld	a5,72(s5)
    80002a10:	04fa3423          	sd	a5,72(s4)
  *(np->trapframe) = *(p->trapframe);
    80002a14:	058ab683          	ld	a3,88(s5)
    80002a18:	00068793          	mv	a5,a3
    80002a1c:	058a3703          	ld	a4,88(s4)
    80002a20:	12068693          	add	a3,a3,288
    80002a24:	0007b803          	ld	a6,0(a5) # 1000 <_entry-0x7ffff000>
    80002a28:	0087b503          	ld	a0,8(a5)
    80002a2c:	0107b583          	ld	a1,16(a5)
    80002a30:	0187b603          	ld	a2,24(a5)
    80002a34:	01073023          	sd	a6,0(a4)
    80002a38:	00a73423          	sd	a0,8(a4)
    80002a3c:	00b73823          	sd	a1,16(a4)
    80002a40:	00c73c23          	sd	a2,24(a4)
    80002a44:	02078793          	add	a5,a5,32
    80002a48:	02070713          	add	a4,a4,32
    80002a4c:	fcd79ce3          	bne	a5,a3,80002a24 <fork+0x70>
  np->trapframe->a0 = 0;
    80002a50:	058a3783          	ld	a5,88(s4)
    80002a54:	0607b823          	sd	zero,112(a5)
  for(i = 0; i < NOFILE; i++)
    80002a58:	0d0a8493          	add	s1,s5,208
    80002a5c:	0d0a0913          	add	s2,s4,208
    80002a60:	150a8993          	add	s3,s5,336
    80002a64:	0300006f          	j	80002a94 <fork+0xe0>
    freeproc(np);
    80002a68:	000a0513          	mv	a0,s4
    80002a6c:	00000097          	auipc	ra,0x0
    80002a70:	c70080e7          	jalr	-912(ra) # 800026dc <freeproc>
    release(&np->lock);
    80002a74:	000a0513          	mv	a0,s4
    80002a78:	ffffe097          	auipc	ra,0xffffe
    80002a7c:	644080e7          	jalr	1604(ra) # 800010bc <release>
    return -1;
    80002a80:	fff00913          	li	s2,-1
    80002a84:	0a00006f          	j	80002b24 <fork+0x170>
  for(i = 0; i < NOFILE; i++)
    80002a88:	00848493          	add	s1,s1,8
    80002a8c:	00890913          	add	s2,s2,8
    80002a90:	01348e63          	beq	s1,s3,80002aac <fork+0xf8>
    if(p->ofile[i])
    80002a94:	0004b503          	ld	a0,0(s1)
    80002a98:	fe0508e3          	beqz	a0,80002a88 <fork+0xd4>
      np->ofile[i] = filedup(p->ofile[i]);
    80002a9c:	00003097          	auipc	ra,0x3
    80002aa0:	510080e7          	jalr	1296(ra) # 80005fac <filedup>
    80002aa4:	00a93023          	sd	a0,0(s2)
    80002aa8:	fe1ff06f          	j	80002a88 <fork+0xd4>
  np->cwd = idup(p->cwd);
    80002aac:	150ab503          	ld	a0,336(s5)
    80002ab0:	00002097          	auipc	ra,0x2
    80002ab4:	0d0080e7          	jalr	208(ra) # 80004b80 <idup>
    80002ab8:	14aa3823          	sd	a0,336(s4)
  safestrcpy(np->name, p->name, sizeof(p->name));
    80002abc:	01000613          	li	a2,16
    80002ac0:	158a8593          	add	a1,s5,344
    80002ac4:	158a0513          	add	a0,s4,344
    80002ac8:	fffff097          	auipc	ra,0xfffff
    80002acc:	854080e7          	jalr	-1964(ra) # 8000131c <safestrcpy>
  pid = np->pid;
    80002ad0:	030a2903          	lw	s2,48(s4)
  release(&np->lock);
    80002ad4:	000a0513          	mv	a0,s4
    80002ad8:	ffffe097          	auipc	ra,0xffffe
    80002adc:	5e4080e7          	jalr	1508(ra) # 800010bc <release>
  acquire(&wait_lock);
    80002ae0:	00010497          	auipc	s1,0x10
    80002ae4:	12848493          	add	s1,s1,296 # 80012c08 <wait_lock>
    80002ae8:	00048513          	mv	a0,s1
    80002aec:	ffffe097          	auipc	ra,0xffffe
    80002af0:	4d8080e7          	jalr	1240(ra) # 80000fc4 <acquire>
  np->parent = p;
    80002af4:	035a3c23          	sd	s5,56(s4)
  release(&wait_lock);
    80002af8:	00048513          	mv	a0,s1
    80002afc:	ffffe097          	auipc	ra,0xffffe
    80002b00:	5c0080e7          	jalr	1472(ra) # 800010bc <release>
  acquire(&np->lock);
    80002b04:	000a0513          	mv	a0,s4
    80002b08:	ffffe097          	auipc	ra,0xffffe
    80002b0c:	4bc080e7          	jalr	1212(ra) # 80000fc4 <acquire>
  np->state = RUNNABLE;
    80002b10:	00300793          	li	a5,3
    80002b14:	00fa2c23          	sw	a5,24(s4)
  release(&np->lock);
    80002b18:	000a0513          	mv	a0,s4
    80002b1c:	ffffe097          	auipc	ra,0xffffe
    80002b20:	5a0080e7          	jalr	1440(ra) # 800010bc <release>
}
    80002b24:	00090513          	mv	a0,s2
    80002b28:	03813083          	ld	ra,56(sp)
    80002b2c:	03013403          	ld	s0,48(sp)
    80002b30:	02813483          	ld	s1,40(sp)
    80002b34:	02013903          	ld	s2,32(sp)
    80002b38:	01813983          	ld	s3,24(sp)
    80002b3c:	01013a03          	ld	s4,16(sp)
    80002b40:	00813a83          	ld	s5,8(sp)
    80002b44:	04010113          	add	sp,sp,64
    80002b48:	00008067          	ret
    return -1;
    80002b4c:	fff00913          	li	s2,-1
    80002b50:	fd5ff06f          	j	80002b24 <fork+0x170>

0000000080002b54 <scheduler>:
{
    80002b54:	fc010113          	add	sp,sp,-64
    80002b58:	02113c23          	sd	ra,56(sp)
    80002b5c:	02813823          	sd	s0,48(sp)
    80002b60:	02913423          	sd	s1,40(sp)
    80002b64:	03213023          	sd	s2,32(sp)
    80002b68:	01313c23          	sd	s3,24(sp)
    80002b6c:	01413823          	sd	s4,16(sp)
    80002b70:	01513423          	sd	s5,8(sp)
    80002b74:	01613023          	sd	s6,0(sp)
    80002b78:	04010413          	add	s0,sp,64
    80002b7c:	00020793          	mv	a5,tp
  int id = r_tp();
    80002b80:	0007879b          	sext.w	a5,a5
  c->proc = 0;
    80002b84:	00779a93          	sll	s5,a5,0x7
    80002b88:	00010717          	auipc	a4,0x10
    80002b8c:	06870713          	add	a4,a4,104 # 80012bf0 <pid_lock>
    80002b90:	01570733          	add	a4,a4,s5
    80002b94:	02073823          	sd	zero,48(a4)
        swtch(&c->context, &p->context);
    80002b98:	00010717          	auipc	a4,0x10
    80002b9c:	09070713          	add	a4,a4,144 # 80012c28 <cpus+0x8>
    80002ba0:	00ea8ab3          	add	s5,s5,a4
      if(p->state == RUNNABLE) {
    80002ba4:	00300993          	li	s3,3
        p->state = RUNNING;
    80002ba8:	00400b13          	li	s6,4
        c->proc = p;
    80002bac:	00779793          	sll	a5,a5,0x7
    80002bb0:	00010a17          	auipc	s4,0x10
    80002bb4:	040a0a13          	add	s4,s4,64 # 80012bf0 <pid_lock>
    80002bb8:	00fa0a33          	add	s4,s4,a5
    for(p = proc; p < &proc[NPROC]; p++) {
    80002bbc:	00016917          	auipc	s2,0x16
    80002bc0:	e6490913          	add	s2,s2,-412 # 80018a20 <tickslock>
  asm volatile("csrr %0, sstatus" : "=r" (x) );
    80002bc4:	100027f3          	csrr	a5,sstatus
  w_sstatus(r_sstatus() | SSTATUS_SIE);
    80002bc8:	0027e793          	or	a5,a5,2
  asm volatile("csrw sstatus, %0" : : "r" (x));
    80002bcc:	10079073          	csrw	sstatus,a5
    80002bd0:	00010497          	auipc	s1,0x10
    80002bd4:	45048493          	add	s1,s1,1104 # 80013020 <proc>
    80002bd8:	0180006f          	j	80002bf0 <scheduler+0x9c>
      release(&p->lock);
    80002bdc:	00048513          	mv	a0,s1
    80002be0:	ffffe097          	auipc	ra,0xffffe
    80002be4:	4dc080e7          	jalr	1244(ra) # 800010bc <release>
    for(p = proc; p < &proc[NPROC]; p++) {
    80002be8:	16848493          	add	s1,s1,360
    80002bec:	fd248ce3          	beq	s1,s2,80002bc4 <scheduler+0x70>
      acquire(&p->lock);
    80002bf0:	00048513          	mv	a0,s1
    80002bf4:	ffffe097          	auipc	ra,0xffffe
    80002bf8:	3d0080e7          	jalr	976(ra) # 80000fc4 <acquire>
      if(p->state == RUNNABLE) {
    80002bfc:	0184a783          	lw	a5,24(s1)
    80002c00:	fd379ee3          	bne	a5,s3,80002bdc <scheduler+0x88>
        p->state = RUNNING;
    80002c04:	0164ac23          	sw	s6,24(s1)
        c->proc = p;
    80002c08:	029a3823          	sd	s1,48(s4)
        swtch(&c->context, &p->context);
    80002c0c:	06048593          	add	a1,s1,96
    80002c10:	000a8513          	mv	a0,s5
    80002c14:	00001097          	auipc	ra,0x1
    80002c18:	934080e7          	jalr	-1740(ra) # 80003548 <swtch>
        c->proc = 0;
    80002c1c:	020a3823          	sd	zero,48(s4)
    80002c20:	fbdff06f          	j	80002bdc <scheduler+0x88>

0000000080002c24 <sched>:
{
    80002c24:	fd010113          	add	sp,sp,-48
    80002c28:	02113423          	sd	ra,40(sp)
    80002c2c:	02813023          	sd	s0,32(sp)
    80002c30:	00913c23          	sd	s1,24(sp)
    80002c34:	01213823          	sd	s2,16(sp)
    80002c38:	01313423          	sd	s3,8(sp)
    80002c3c:	03010413          	add	s0,sp,48
  struct proc *p = myproc();
    80002c40:	00000097          	auipc	ra,0x0
    80002c44:	814080e7          	jalr	-2028(ra) # 80002454 <myproc>
    80002c48:	00050493          	mv	s1,a0
  if(!holding(&p->lock))
    80002c4c:	ffffe097          	auipc	ra,0xffffe
    80002c50:	2b8080e7          	jalr	696(ra) # 80000f04 <holding>
    80002c54:	0a050863          	beqz	a0,80002d04 <sched+0xe0>
  asm volatile("mv %0, tp" : "=r" (x) );
    80002c58:	00020793          	mv	a5,tp
  if(mycpu()->noff != 1)
    80002c5c:	0007879b          	sext.w	a5,a5
    80002c60:	00779793          	sll	a5,a5,0x7
    80002c64:	00010717          	auipc	a4,0x10
    80002c68:	f8c70713          	add	a4,a4,-116 # 80012bf0 <pid_lock>
    80002c6c:	00f707b3          	add	a5,a4,a5
    80002c70:	0a87a703          	lw	a4,168(a5)
    80002c74:	00100793          	li	a5,1
    80002c78:	08f71e63          	bne	a4,a5,80002d14 <sched+0xf0>
  if(p->state == RUNNING)
    80002c7c:	0184a703          	lw	a4,24(s1)
    80002c80:	00400793          	li	a5,4
    80002c84:	0af70063          	beq	a4,a5,80002d24 <sched+0x100>
  asm volatile("csrr %0, sstatus" : "=r" (x) );
    80002c88:	100027f3          	csrr	a5,sstatus
  return (x & SSTATUS_SIE) != 0;
    80002c8c:	0027f793          	and	a5,a5,2
  if(intr_get())
    80002c90:	0a079263          	bnez	a5,80002d34 <sched+0x110>
  asm volatile("mv %0, tp" : "=r" (x) );
    80002c94:	00020793          	mv	a5,tp
  intena = mycpu()->intena;
    80002c98:	00010917          	auipc	s2,0x10
    80002c9c:	f5890913          	add	s2,s2,-168 # 80012bf0 <pid_lock>
    80002ca0:	0007879b          	sext.w	a5,a5
    80002ca4:	00779793          	sll	a5,a5,0x7
    80002ca8:	00f907b3          	add	a5,s2,a5
    80002cac:	0ac7a983          	lw	s3,172(a5)
    80002cb0:	00020793          	mv	a5,tp
  swtch(&p->context, &mycpu()->context);
    80002cb4:	0007879b          	sext.w	a5,a5
    80002cb8:	00779793          	sll	a5,a5,0x7
    80002cbc:	00010597          	auipc	a1,0x10
    80002cc0:	f6c58593          	add	a1,a1,-148 # 80012c28 <cpus+0x8>
    80002cc4:	00b785b3          	add	a1,a5,a1
    80002cc8:	06048513          	add	a0,s1,96
    80002ccc:	00001097          	auipc	ra,0x1
    80002cd0:	87c080e7          	jalr	-1924(ra) # 80003548 <swtch>
    80002cd4:	00020793          	mv	a5,tp
  mycpu()->intena = intena;
    80002cd8:	0007879b          	sext.w	a5,a5
    80002cdc:	00779793          	sll	a5,a5,0x7
    80002ce0:	00f90933          	add	s2,s2,a5
    80002ce4:	0b392623          	sw	s3,172(s2)
}
    80002ce8:	02813083          	ld	ra,40(sp)
    80002cec:	02013403          	ld	s0,32(sp)
    80002cf0:	01813483          	ld	s1,24(sp)
    80002cf4:	01013903          	ld	s2,16(sp)
    80002cf8:	00813983          	ld	s3,8(sp)
    80002cfc:	03010113          	add	sp,sp,48
    80002d00:	00008067          	ret
    panic("sched p->lock");
    80002d04:	00007517          	auipc	a0,0x7
    80002d08:	5cc50513          	add	a0,a0,1484 # 8000a2d0 <digits+0x290>
    80002d0c:	ffffe097          	auipc	ra,0xffffe
    80002d10:	9bc080e7          	jalr	-1604(ra) # 800006c8 <panic>
    panic("sched locks");
    80002d14:	00007517          	auipc	a0,0x7
    80002d18:	5cc50513          	add	a0,a0,1484 # 8000a2e0 <digits+0x2a0>
    80002d1c:	ffffe097          	auipc	ra,0xffffe
    80002d20:	9ac080e7          	jalr	-1620(ra) # 800006c8 <panic>
    panic("sched running");
    80002d24:	00007517          	auipc	a0,0x7
    80002d28:	5cc50513          	add	a0,a0,1484 # 8000a2f0 <digits+0x2b0>
    80002d2c:	ffffe097          	auipc	ra,0xffffe
    80002d30:	99c080e7          	jalr	-1636(ra) # 800006c8 <panic>
    panic("sched interruptible");
    80002d34:	00007517          	auipc	a0,0x7
    80002d38:	5cc50513          	add	a0,a0,1484 # 8000a300 <digits+0x2c0>
    80002d3c:	ffffe097          	auipc	ra,0xffffe
    80002d40:	98c080e7          	jalr	-1652(ra) # 800006c8 <panic>

0000000080002d44 <yield>:
{
    80002d44:	fe010113          	add	sp,sp,-32
    80002d48:	00113c23          	sd	ra,24(sp)
    80002d4c:	00813823          	sd	s0,16(sp)
    80002d50:	00913423          	sd	s1,8(sp)
    80002d54:	02010413          	add	s0,sp,32
  struct proc *p = myproc();
    80002d58:	fffff097          	auipc	ra,0xfffff
    80002d5c:	6fc080e7          	jalr	1788(ra) # 80002454 <myproc>
    80002d60:	00050493          	mv	s1,a0
  acquire(&p->lock);
    80002d64:	ffffe097          	auipc	ra,0xffffe
    80002d68:	260080e7          	jalr	608(ra) # 80000fc4 <acquire>
  p->state = RUNNABLE;
    80002d6c:	00300793          	li	a5,3
    80002d70:	00f4ac23          	sw	a5,24(s1)
  sched();
    80002d74:	00000097          	auipc	ra,0x0
    80002d78:	eb0080e7          	jalr	-336(ra) # 80002c24 <sched>
  release(&p->lock);
    80002d7c:	00048513          	mv	a0,s1
    80002d80:	ffffe097          	auipc	ra,0xffffe
    80002d84:	33c080e7          	jalr	828(ra) # 800010bc <release>
}
    80002d88:	01813083          	ld	ra,24(sp)
    80002d8c:	01013403          	ld	s0,16(sp)
    80002d90:	00813483          	ld	s1,8(sp)
    80002d94:	02010113          	add	sp,sp,32
    80002d98:	00008067          	ret

0000000080002d9c <sleep>:

// Atomically release lock and sleep on chan.
// Reacquires lock when awakened.
void
sleep(void *chan, struct spinlock *lk)
{
    80002d9c:	fd010113          	add	sp,sp,-48
    80002da0:	02113423          	sd	ra,40(sp)
    80002da4:	02813023          	sd	s0,32(sp)
    80002da8:	00913c23          	sd	s1,24(sp)
    80002dac:	01213823          	sd	s2,16(sp)
    80002db0:	01313423          	sd	s3,8(sp)
    80002db4:	03010413          	add	s0,sp,48
    80002db8:	00050993          	mv	s3,a0
    80002dbc:	00058913          	mv	s2,a1
  struct proc *p = myproc();
    80002dc0:	fffff097          	auipc	ra,0xfffff
    80002dc4:	694080e7          	jalr	1684(ra) # 80002454 <myproc>
    80002dc8:	00050493          	mv	s1,a0
  // Once we hold p->lock, we can be
  // guaranteed that we won't miss any wakeup
  // (wakeup locks p->lock),
  // so it's okay to release lk.

  acquire(&p->lock);  //DOC: sleeplock1
    80002dcc:	ffffe097          	auipc	ra,0xffffe
    80002dd0:	1f8080e7          	jalr	504(ra) # 80000fc4 <acquire>
  release(lk);
    80002dd4:	00090513          	mv	a0,s2
    80002dd8:	ffffe097          	auipc	ra,0xffffe
    80002ddc:	2e4080e7          	jalr	740(ra) # 800010bc <release>

  // Go to sleep.
  p->chan = chan;
    80002de0:	0334b023          	sd	s3,32(s1)
  p->state = SLEEPING;
    80002de4:	00200793          	li	a5,2
    80002de8:	00f4ac23          	sw	a5,24(s1)

  sched();
    80002dec:	00000097          	auipc	ra,0x0
    80002df0:	e38080e7          	jalr	-456(ra) # 80002c24 <sched>

  // Tidy up.
  p->chan = 0;
    80002df4:	0204b023          	sd	zero,32(s1)

  // Reacquire original lock.
  release(&p->lock);
    80002df8:	00048513          	mv	a0,s1
    80002dfc:	ffffe097          	auipc	ra,0xffffe
    80002e00:	2c0080e7          	jalr	704(ra) # 800010bc <release>
  acquire(lk);
    80002e04:	00090513          	mv	a0,s2
    80002e08:	ffffe097          	auipc	ra,0xffffe
    80002e0c:	1bc080e7          	jalr	444(ra) # 80000fc4 <acquire>
}
    80002e10:	02813083          	ld	ra,40(sp)
    80002e14:	02013403          	ld	s0,32(sp)
    80002e18:	01813483          	ld	s1,24(sp)
    80002e1c:	01013903          	ld	s2,16(sp)
    80002e20:	00813983          	ld	s3,8(sp)
    80002e24:	03010113          	add	sp,sp,48
    80002e28:	00008067          	ret

0000000080002e2c <wakeup>:

// Wake up all processes sleeping on chan.
// Must be called without any p->lock.
void
wakeup(void *chan)
{
    80002e2c:	fc010113          	add	sp,sp,-64
    80002e30:	02113c23          	sd	ra,56(sp)
    80002e34:	02813823          	sd	s0,48(sp)
    80002e38:	02913423          	sd	s1,40(sp)
    80002e3c:	03213023          	sd	s2,32(sp)
    80002e40:	01313c23          	sd	s3,24(sp)
    80002e44:	01413823          	sd	s4,16(sp)
    80002e48:	01513423          	sd	s5,8(sp)
    80002e4c:	04010413          	add	s0,sp,64
    80002e50:	00050a13          	mv	s4,a0
  struct proc *p;

  for(p = proc; p < &proc[NPROC]; p++) {
    80002e54:	00010497          	auipc	s1,0x10
    80002e58:	1cc48493          	add	s1,s1,460 # 80013020 <proc>
    if(p != myproc()){
      acquire(&p->lock);
      if(p->state == SLEEPING && p->chan == chan) {
    80002e5c:	00200993          	li	s3,2
        p->state = RUNNABLE;
    80002e60:	00300a93          	li	s5,3
  for(p = proc; p < &proc[NPROC]; p++) {
    80002e64:	00016917          	auipc	s2,0x16
    80002e68:	bbc90913          	add	s2,s2,-1092 # 80018a20 <tickslock>
    80002e6c:	0180006f          	j	80002e84 <wakeup+0x58>
      }
      release(&p->lock);
    80002e70:	00048513          	mv	a0,s1
    80002e74:	ffffe097          	auipc	ra,0xffffe
    80002e78:	248080e7          	jalr	584(ra) # 800010bc <release>
  for(p = proc; p < &proc[NPROC]; p++) {
    80002e7c:	16848493          	add	s1,s1,360
    80002e80:	03248a63          	beq	s1,s2,80002eb4 <wakeup+0x88>
    if(p != myproc()){
    80002e84:	fffff097          	auipc	ra,0xfffff
    80002e88:	5d0080e7          	jalr	1488(ra) # 80002454 <myproc>
    80002e8c:	fea488e3          	beq	s1,a0,80002e7c <wakeup+0x50>
      acquire(&p->lock);
    80002e90:	00048513          	mv	a0,s1
    80002e94:	ffffe097          	auipc	ra,0xffffe
    80002e98:	130080e7          	jalr	304(ra) # 80000fc4 <acquire>
      if(p->state == SLEEPING && p->chan == chan) {
    80002e9c:	0184a783          	lw	a5,24(s1)
    80002ea0:	fd3798e3          	bne	a5,s3,80002e70 <wakeup+0x44>
    80002ea4:	0204b783          	ld	a5,32(s1)
    80002ea8:	fd4794e3          	bne	a5,s4,80002e70 <wakeup+0x44>
        p->state = RUNNABLE;
    80002eac:	0154ac23          	sw	s5,24(s1)
    80002eb0:	fc1ff06f          	j	80002e70 <wakeup+0x44>
    }
  }
}
    80002eb4:	03813083          	ld	ra,56(sp)
    80002eb8:	03013403          	ld	s0,48(sp)
    80002ebc:	02813483          	ld	s1,40(sp)
    80002ec0:	02013903          	ld	s2,32(sp)
    80002ec4:	01813983          	ld	s3,24(sp)
    80002ec8:	01013a03          	ld	s4,16(sp)
    80002ecc:	00813a83          	ld	s5,8(sp)
    80002ed0:	04010113          	add	sp,sp,64
    80002ed4:	00008067          	ret

0000000080002ed8 <reparent>:
{
    80002ed8:	fd010113          	add	sp,sp,-48
    80002edc:	02113423          	sd	ra,40(sp)
    80002ee0:	02813023          	sd	s0,32(sp)
    80002ee4:	00913c23          	sd	s1,24(sp)
    80002ee8:	01213823          	sd	s2,16(sp)
    80002eec:	01313423          	sd	s3,8(sp)
    80002ef0:	01413023          	sd	s4,0(sp)
    80002ef4:	03010413          	add	s0,sp,48
    80002ef8:	00050913          	mv	s2,a0
  for(pp = proc; pp < &proc[NPROC]; pp++){
    80002efc:	00010497          	auipc	s1,0x10
    80002f00:	12448493          	add	s1,s1,292 # 80013020 <proc>
      pp->parent = initproc;
    80002f04:	00008a17          	auipc	s4,0x8
    80002f08:	a74a0a13          	add	s4,s4,-1420 # 8000a978 <initproc>
  for(pp = proc; pp < &proc[NPROC]; pp++){
    80002f0c:	00016997          	auipc	s3,0x16
    80002f10:	b1498993          	add	s3,s3,-1260 # 80018a20 <tickslock>
    80002f14:	00c0006f          	j	80002f20 <reparent+0x48>
    80002f18:	16848493          	add	s1,s1,360
    80002f1c:	03348063          	beq	s1,s3,80002f3c <reparent+0x64>
    if(pp->parent == p){
    80002f20:	0384b783          	ld	a5,56(s1)
    80002f24:	ff279ae3          	bne	a5,s2,80002f18 <reparent+0x40>
      pp->parent = initproc;
    80002f28:	000a3503          	ld	a0,0(s4)
    80002f2c:	02a4bc23          	sd	a0,56(s1)
      wakeup(initproc);
    80002f30:	00000097          	auipc	ra,0x0
    80002f34:	efc080e7          	jalr	-260(ra) # 80002e2c <wakeup>
    80002f38:	fe1ff06f          	j	80002f18 <reparent+0x40>
}
    80002f3c:	02813083          	ld	ra,40(sp)
    80002f40:	02013403          	ld	s0,32(sp)
    80002f44:	01813483          	ld	s1,24(sp)
    80002f48:	01013903          	ld	s2,16(sp)
    80002f4c:	00813983          	ld	s3,8(sp)
    80002f50:	00013a03          	ld	s4,0(sp)
    80002f54:	03010113          	add	sp,sp,48
    80002f58:	00008067          	ret

0000000080002f5c <exit>:
{
    80002f5c:	fd010113          	add	sp,sp,-48
    80002f60:	02113423          	sd	ra,40(sp)
    80002f64:	02813023          	sd	s0,32(sp)
    80002f68:	00913c23          	sd	s1,24(sp)
    80002f6c:	01213823          	sd	s2,16(sp)
    80002f70:	01313423          	sd	s3,8(sp)
    80002f74:	01413023          	sd	s4,0(sp)
    80002f78:	03010413          	add	s0,sp,48
    80002f7c:	00050a13          	mv	s4,a0
  struct proc *p = myproc();
    80002f80:	fffff097          	auipc	ra,0xfffff
    80002f84:	4d4080e7          	jalr	1236(ra) # 80002454 <myproc>
    80002f88:	00050993          	mv	s3,a0
  if(p == initproc)
    80002f8c:	00008797          	auipc	a5,0x8
    80002f90:	9ec7b783          	ld	a5,-1556(a5) # 8000a978 <initproc>
    80002f94:	0d050493          	add	s1,a0,208
    80002f98:	15050913          	add	s2,a0,336
    80002f9c:	02a79463          	bne	a5,a0,80002fc4 <exit+0x68>
    panic("init exiting");
    80002fa0:	00007517          	auipc	a0,0x7
    80002fa4:	37850513          	add	a0,a0,888 # 8000a318 <digits+0x2d8>
    80002fa8:	ffffd097          	auipc	ra,0xffffd
    80002fac:	720080e7          	jalr	1824(ra) # 800006c8 <panic>
      fileclose(f);
    80002fb0:	00003097          	auipc	ra,0x3
    80002fb4:	06c080e7          	jalr	108(ra) # 8000601c <fileclose>
      p->ofile[fd] = 0;
    80002fb8:	0004b023          	sd	zero,0(s1)
  for(int fd = 0; fd < NOFILE; fd++){
    80002fbc:	00848493          	add	s1,s1,8
    80002fc0:	01248863          	beq	s1,s2,80002fd0 <exit+0x74>
    if(p->ofile[fd]){
    80002fc4:	0004b503          	ld	a0,0(s1)
    80002fc8:	fe0514e3          	bnez	a0,80002fb0 <exit+0x54>
    80002fcc:	ff1ff06f          	j	80002fbc <exit+0x60>
  begin_op();
    80002fd0:	00003097          	auipc	ra,0x3
    80002fd4:	9c4080e7          	jalr	-1596(ra) # 80005994 <begin_op>
  iput(p->cwd);
    80002fd8:	1509b503          	ld	a0,336(s3)
    80002fdc:	00002097          	auipc	ra,0x2
    80002fe0:	e60080e7          	jalr	-416(ra) # 80004e3c <iput>
  end_op();
    80002fe4:	00003097          	auipc	ra,0x3
    80002fe8:	a60080e7          	jalr	-1440(ra) # 80005a44 <end_op>
  p->cwd = 0;
    80002fec:	1409b823          	sd	zero,336(s3)
  acquire(&wait_lock);
    80002ff0:	00010497          	auipc	s1,0x10
    80002ff4:	c1848493          	add	s1,s1,-1000 # 80012c08 <wait_lock>
    80002ff8:	00048513          	mv	a0,s1
    80002ffc:	ffffe097          	auipc	ra,0xffffe
    80003000:	fc8080e7          	jalr	-56(ra) # 80000fc4 <acquire>
  reparent(p);
    80003004:	00098513          	mv	a0,s3
    80003008:	00000097          	auipc	ra,0x0
    8000300c:	ed0080e7          	jalr	-304(ra) # 80002ed8 <reparent>
  wakeup(p->parent);
    80003010:	0389b503          	ld	a0,56(s3)
    80003014:	00000097          	auipc	ra,0x0
    80003018:	e18080e7          	jalr	-488(ra) # 80002e2c <wakeup>
  acquire(&p->lock);
    8000301c:	00098513          	mv	a0,s3
    80003020:	ffffe097          	auipc	ra,0xffffe
    80003024:	fa4080e7          	jalr	-92(ra) # 80000fc4 <acquire>
  p->xstate = status;
    80003028:	0349a623          	sw	s4,44(s3)
  p->state = ZOMBIE;
    8000302c:	00500793          	li	a5,5
    80003030:	00f9ac23          	sw	a5,24(s3)
  release(&wait_lock);
    80003034:	00048513          	mv	a0,s1
    80003038:	ffffe097          	auipc	ra,0xffffe
    8000303c:	084080e7          	jalr	132(ra) # 800010bc <release>
  sched();
    80003040:	00000097          	auipc	ra,0x0
    80003044:	be4080e7          	jalr	-1052(ra) # 80002c24 <sched>
  panic("zombie exit");
    80003048:	00007517          	auipc	a0,0x7
    8000304c:	2e050513          	add	a0,a0,736 # 8000a328 <digits+0x2e8>
    80003050:	ffffd097          	auipc	ra,0xffffd
    80003054:	678080e7          	jalr	1656(ra) # 800006c8 <panic>

0000000080003058 <kill>:
// Kill the process with the given pid.
// The victim won't exit until it tries to return
// to user space (see usertrap() in trap.c).
int
kill(int pid)
{
    80003058:	fd010113          	add	sp,sp,-48
    8000305c:	02113423          	sd	ra,40(sp)
    80003060:	02813023          	sd	s0,32(sp)
    80003064:	00913c23          	sd	s1,24(sp)
    80003068:	01213823          	sd	s2,16(sp)
    8000306c:	01313423          	sd	s3,8(sp)
    80003070:	03010413          	add	s0,sp,48
    80003074:	00050913          	mv	s2,a0
  struct proc *p;

  for(p = proc; p < &proc[NPROC]; p++){
    80003078:	00010497          	auipc	s1,0x10
    8000307c:	fa848493          	add	s1,s1,-88 # 80013020 <proc>
    80003080:	00016997          	auipc	s3,0x16
    80003084:	9a098993          	add	s3,s3,-1632 # 80018a20 <tickslock>
    acquire(&p->lock);
    80003088:	00048513          	mv	a0,s1
    8000308c:	ffffe097          	auipc	ra,0xffffe
    80003090:	f38080e7          	jalr	-200(ra) # 80000fc4 <acquire>
    if(p->pid == pid){
    80003094:	0304a783          	lw	a5,48(s1)
    80003098:	03278063          	beq	a5,s2,800030b8 <kill+0x60>
        p->state = RUNNABLE;
      }
      release(&p->lock);
      return 0;
    }
    release(&p->lock);
    8000309c:	00048513          	mv	a0,s1
    800030a0:	ffffe097          	auipc	ra,0xffffe
    800030a4:	01c080e7          	jalr	28(ra) # 800010bc <release>
  for(p = proc; p < &proc[NPROC]; p++){
    800030a8:	16848493          	add	s1,s1,360
    800030ac:	fd349ee3          	bne	s1,s3,80003088 <kill+0x30>
  }
  return -1;
    800030b0:	fff00513          	li	a0,-1
    800030b4:	0280006f          	j	800030dc <kill+0x84>
      p->killed = 1;
    800030b8:	00100793          	li	a5,1
    800030bc:	02f4a423          	sw	a5,40(s1)
      if(p->state == SLEEPING){
    800030c0:	0184a703          	lw	a4,24(s1)
    800030c4:	00200793          	li	a5,2
    800030c8:	02f70863          	beq	a4,a5,800030f8 <kill+0xa0>
      release(&p->lock);
    800030cc:	00048513          	mv	a0,s1
    800030d0:	ffffe097          	auipc	ra,0xffffe
    800030d4:	fec080e7          	jalr	-20(ra) # 800010bc <release>
      return 0;
    800030d8:	00000513          	li	a0,0
}
    800030dc:	02813083          	ld	ra,40(sp)
    800030e0:	02013403          	ld	s0,32(sp)
    800030e4:	01813483          	ld	s1,24(sp)
    800030e8:	01013903          	ld	s2,16(sp)
    800030ec:	00813983          	ld	s3,8(sp)
    800030f0:	03010113          	add	sp,sp,48
    800030f4:	00008067          	ret
        p->state = RUNNABLE;
    800030f8:	00300793          	li	a5,3
    800030fc:	00f4ac23          	sw	a5,24(s1)
    80003100:	fcdff06f          	j	800030cc <kill+0x74>

0000000080003104 <setkilled>:

void
setkilled(struct proc *p)
{
    80003104:	fe010113          	add	sp,sp,-32
    80003108:	00113c23          	sd	ra,24(sp)
    8000310c:	00813823          	sd	s0,16(sp)
    80003110:	00913423          	sd	s1,8(sp)
    80003114:	02010413          	add	s0,sp,32
    80003118:	00050493          	mv	s1,a0
  acquire(&p->lock);
    8000311c:	ffffe097          	auipc	ra,0xffffe
    80003120:	ea8080e7          	jalr	-344(ra) # 80000fc4 <acquire>
  p->killed = 1;
    80003124:	00100793          	li	a5,1
    80003128:	02f4a423          	sw	a5,40(s1)
  release(&p->lock);
    8000312c:	00048513          	mv	a0,s1
    80003130:	ffffe097          	auipc	ra,0xffffe
    80003134:	f8c080e7          	jalr	-116(ra) # 800010bc <release>
}
    80003138:	01813083          	ld	ra,24(sp)
    8000313c:	01013403          	ld	s0,16(sp)
    80003140:	00813483          	ld	s1,8(sp)
    80003144:	02010113          	add	sp,sp,32
    80003148:	00008067          	ret

000000008000314c <killed>:

int
killed(struct proc *p)
{
    8000314c:	fe010113          	add	sp,sp,-32
    80003150:	00113c23          	sd	ra,24(sp)
    80003154:	00813823          	sd	s0,16(sp)
    80003158:	00913423          	sd	s1,8(sp)
    8000315c:	01213023          	sd	s2,0(sp)
    80003160:	02010413          	add	s0,sp,32
    80003164:	00050493          	mv	s1,a0
  int k;
  
  acquire(&p->lock);
    80003168:	ffffe097          	auipc	ra,0xffffe
    8000316c:	e5c080e7          	jalr	-420(ra) # 80000fc4 <acquire>
  k = p->killed;
    80003170:	0284a903          	lw	s2,40(s1)
  release(&p->lock);
    80003174:	00048513          	mv	a0,s1
    80003178:	ffffe097          	auipc	ra,0xffffe
    8000317c:	f44080e7          	jalr	-188(ra) # 800010bc <release>
  return k;
}
    80003180:	00090513          	mv	a0,s2
    80003184:	01813083          	ld	ra,24(sp)
    80003188:	01013403          	ld	s0,16(sp)
    8000318c:	00813483          	ld	s1,8(sp)
    80003190:	00013903          	ld	s2,0(sp)
    80003194:	02010113          	add	sp,sp,32
    80003198:	00008067          	ret

000000008000319c <wait>:
{
    8000319c:	fb010113          	add	sp,sp,-80
    800031a0:	04113423          	sd	ra,72(sp)
    800031a4:	04813023          	sd	s0,64(sp)
    800031a8:	02913c23          	sd	s1,56(sp)
    800031ac:	03213823          	sd	s2,48(sp)
    800031b0:	03313423          	sd	s3,40(sp)
    800031b4:	03413023          	sd	s4,32(sp)
    800031b8:	01513c23          	sd	s5,24(sp)
    800031bc:	01613823          	sd	s6,16(sp)
    800031c0:	01713423          	sd	s7,8(sp)
    800031c4:	01813023          	sd	s8,0(sp)
    800031c8:	05010413          	add	s0,sp,80
    800031cc:	00050b13          	mv	s6,a0
  struct proc *p = myproc();
    800031d0:	fffff097          	auipc	ra,0xfffff
    800031d4:	284080e7          	jalr	644(ra) # 80002454 <myproc>
    800031d8:	00050913          	mv	s2,a0
  acquire(&wait_lock);
    800031dc:	00010517          	auipc	a0,0x10
    800031e0:	a2c50513          	add	a0,a0,-1492 # 80012c08 <wait_lock>
    800031e4:	ffffe097          	auipc	ra,0xffffe
    800031e8:	de0080e7          	jalr	-544(ra) # 80000fc4 <acquire>
    havekids = 0;
    800031ec:	00000b93          	li	s7,0
        if(pp->state == ZOMBIE){
    800031f0:	00500a13          	li	s4,5
        havekids = 1;
    800031f4:	00100a93          	li	s5,1
    for(pp = proc; pp < &proc[NPROC]; pp++){
    800031f8:	00016997          	auipc	s3,0x16
    800031fc:	82898993          	add	s3,s3,-2008 # 80018a20 <tickslock>
    sleep(p, &wait_lock);  //DOC: wait-sleep
    80003200:	00010c17          	auipc	s8,0x10
    80003204:	a08c0c13          	add	s8,s8,-1528 # 80012c08 <wait_lock>
    80003208:	1040006f          	j	8000330c <wait+0x170>
          pid = pp->pid;
    8000320c:	0304a983          	lw	s3,48(s1)
          if(addr != 0 && copyout(p->pagetable, addr, (char *)&pp->xstate,
    80003210:	020b0063          	beqz	s6,80003230 <wait+0x94>
    80003214:	00400693          	li	a3,4
    80003218:	02c48613          	add	a2,s1,44
    8000321c:	000b0593          	mv	a1,s6
    80003220:	05093503          	ld	a0,80(s2)
    80003224:	fffff097          	auipc	ra,0xfffff
    80003228:	d2c080e7          	jalr	-724(ra) # 80001f50 <copyout>
    8000322c:	06054063          	bltz	a0,8000328c <wait+0xf0>
          freeproc(pp);
    80003230:	00048513          	mv	a0,s1
    80003234:	fffff097          	auipc	ra,0xfffff
    80003238:	4a8080e7          	jalr	1192(ra) # 800026dc <freeproc>
          release(&pp->lock);
    8000323c:	00048513          	mv	a0,s1
    80003240:	ffffe097          	auipc	ra,0xffffe
    80003244:	e7c080e7          	jalr	-388(ra) # 800010bc <release>
          release(&wait_lock);
    80003248:	00010517          	auipc	a0,0x10
    8000324c:	9c050513          	add	a0,a0,-1600 # 80012c08 <wait_lock>
    80003250:	ffffe097          	auipc	ra,0xffffe
    80003254:	e6c080e7          	jalr	-404(ra) # 800010bc <release>
}
    80003258:	00098513          	mv	a0,s3
    8000325c:	04813083          	ld	ra,72(sp)
    80003260:	04013403          	ld	s0,64(sp)
    80003264:	03813483          	ld	s1,56(sp)
    80003268:	03013903          	ld	s2,48(sp)
    8000326c:	02813983          	ld	s3,40(sp)
    80003270:	02013a03          	ld	s4,32(sp)
    80003274:	01813a83          	ld	s5,24(sp)
    80003278:	01013b03          	ld	s6,16(sp)
    8000327c:	00813b83          	ld	s7,8(sp)
    80003280:	00013c03          	ld	s8,0(sp)
    80003284:	05010113          	add	sp,sp,80
    80003288:	00008067          	ret
            release(&pp->lock);
    8000328c:	00048513          	mv	a0,s1
    80003290:	ffffe097          	auipc	ra,0xffffe
    80003294:	e2c080e7          	jalr	-468(ra) # 800010bc <release>
            release(&wait_lock);
    80003298:	00010517          	auipc	a0,0x10
    8000329c:	97050513          	add	a0,a0,-1680 # 80012c08 <wait_lock>
    800032a0:	ffffe097          	auipc	ra,0xffffe
    800032a4:	e1c080e7          	jalr	-484(ra) # 800010bc <release>
            return -1;
    800032a8:	fff00993          	li	s3,-1
    800032ac:	fadff06f          	j	80003258 <wait+0xbc>
    for(pp = proc; pp < &proc[NPROC]; pp++){
    800032b0:	16848493          	add	s1,s1,360
    800032b4:	03348a63          	beq	s1,s3,800032e8 <wait+0x14c>
      if(pp->parent == p){
    800032b8:	0384b783          	ld	a5,56(s1)
    800032bc:	ff279ae3          	bne	a5,s2,800032b0 <wait+0x114>
        acquire(&pp->lock);
    800032c0:	00048513          	mv	a0,s1
    800032c4:	ffffe097          	auipc	ra,0xffffe
    800032c8:	d00080e7          	jalr	-768(ra) # 80000fc4 <acquire>
        if(pp->state == ZOMBIE){
    800032cc:	0184a783          	lw	a5,24(s1)
    800032d0:	f3478ee3          	beq	a5,s4,8000320c <wait+0x70>
        release(&pp->lock);
    800032d4:	00048513          	mv	a0,s1
    800032d8:	ffffe097          	auipc	ra,0xffffe
    800032dc:	de4080e7          	jalr	-540(ra) # 800010bc <release>
        havekids = 1;
    800032e0:	000a8713          	mv	a4,s5
    800032e4:	fcdff06f          	j	800032b0 <wait+0x114>
    if(!havekids || killed(p)){
    800032e8:	02070a63          	beqz	a4,8000331c <wait+0x180>
    800032ec:	00090513          	mv	a0,s2
    800032f0:	00000097          	auipc	ra,0x0
    800032f4:	e5c080e7          	jalr	-420(ra) # 8000314c <killed>
    800032f8:	02051263          	bnez	a0,8000331c <wait+0x180>
    sleep(p, &wait_lock);  //DOC: wait-sleep
    800032fc:	000c0593          	mv	a1,s8
    80003300:	00090513          	mv	a0,s2
    80003304:	00000097          	auipc	ra,0x0
    80003308:	a98080e7          	jalr	-1384(ra) # 80002d9c <sleep>
    havekids = 0;
    8000330c:	000b8713          	mv	a4,s7
    for(pp = proc; pp < &proc[NPROC]; pp++){
    80003310:	00010497          	auipc	s1,0x10
    80003314:	d1048493          	add	s1,s1,-752 # 80013020 <proc>
    80003318:	fa1ff06f          	j	800032b8 <wait+0x11c>
      release(&wait_lock);
    8000331c:	00010517          	auipc	a0,0x10
    80003320:	8ec50513          	add	a0,a0,-1812 # 80012c08 <wait_lock>
    80003324:	ffffe097          	auipc	ra,0xffffe
    80003328:	d98080e7          	jalr	-616(ra) # 800010bc <release>
      return -1;
    8000332c:	fff00993          	li	s3,-1
    80003330:	f29ff06f          	j	80003258 <wait+0xbc>

0000000080003334 <either_copyout>:
// Copy to either a user address, or kernel address,
// depending on usr_dst.
// Returns 0 on success, -1 on error.
int
either_copyout(int user_dst, uint64 dst, void *src, uint64 len)
{
    80003334:	fd010113          	add	sp,sp,-48
    80003338:	02113423          	sd	ra,40(sp)
    8000333c:	02813023          	sd	s0,32(sp)
    80003340:	00913c23          	sd	s1,24(sp)
    80003344:	01213823          	sd	s2,16(sp)
    80003348:	01313423          	sd	s3,8(sp)
    8000334c:	01413023          	sd	s4,0(sp)
    80003350:	03010413          	add	s0,sp,48
    80003354:	00050493          	mv	s1,a0
    80003358:	00058913          	mv	s2,a1
    8000335c:	00060993          	mv	s3,a2
    80003360:	00068a13          	mv	s4,a3
  struct proc *p = myproc();
    80003364:	fffff097          	auipc	ra,0xfffff
    80003368:	0f0080e7          	jalr	240(ra) # 80002454 <myproc>
  if(user_dst){
    8000336c:	02048e63          	beqz	s1,800033a8 <either_copyout+0x74>
    return copyout(p->pagetable, dst, src, len);
    80003370:	000a0693          	mv	a3,s4
    80003374:	00098613          	mv	a2,s3
    80003378:	00090593          	mv	a1,s2
    8000337c:	05053503          	ld	a0,80(a0)
    80003380:	fffff097          	auipc	ra,0xfffff
    80003384:	bd0080e7          	jalr	-1072(ra) # 80001f50 <copyout>
  } else {
    memmove((char *)dst, src, len);
    return 0;
  }
}
    80003388:	02813083          	ld	ra,40(sp)
    8000338c:	02013403          	ld	s0,32(sp)
    80003390:	01813483          	ld	s1,24(sp)
    80003394:	01013903          	ld	s2,16(sp)
    80003398:	00813983          	ld	s3,8(sp)
    8000339c:	00013a03          	ld	s4,0(sp)
    800033a0:	03010113          	add	sp,sp,48
    800033a4:	00008067          	ret
    memmove((char *)dst, src, len);
    800033a8:	000a061b          	sext.w	a2,s4
    800033ac:	00098593          	mv	a1,s3
    800033b0:	00090513          	mv	a0,s2
    800033b4:	ffffe097          	auipc	ra,0xffffe
    800033b8:	dfc080e7          	jalr	-516(ra) # 800011b0 <memmove>
    return 0;
    800033bc:	00048513          	mv	a0,s1
    800033c0:	fc9ff06f          	j	80003388 <either_copyout+0x54>

00000000800033c4 <either_copyin>:
// Copy from either a user address, or kernel address,
// depending on usr_src.
// Returns 0 on success, -1 on error.
int
either_copyin(void *dst, int user_src, uint64 src, uint64 len)
{
    800033c4:	fd010113          	add	sp,sp,-48
    800033c8:	02113423          	sd	ra,40(sp)
    800033cc:	02813023          	sd	s0,32(sp)
    800033d0:	00913c23          	sd	s1,24(sp)
    800033d4:	01213823          	sd	s2,16(sp)
    800033d8:	01313423          	sd	s3,8(sp)
    800033dc:	01413023          	sd	s4,0(sp)
    800033e0:	03010413          	add	s0,sp,48
    800033e4:	00050913          	mv	s2,a0
    800033e8:	00058493          	mv	s1,a1
    800033ec:	00060993          	mv	s3,a2
    800033f0:	00068a13          	mv	s4,a3
  struct proc *p = myproc();
    800033f4:	fffff097          	auipc	ra,0xfffff
    800033f8:	060080e7          	jalr	96(ra) # 80002454 <myproc>
  if(user_src){
    800033fc:	02048e63          	beqz	s1,80003438 <either_copyin+0x74>
    return copyin(p->pagetable, dst, src, len);
    80003400:	000a0693          	mv	a3,s4
    80003404:	00098613          	mv	a2,s3
    80003408:	00090593          	mv	a1,s2
    8000340c:	05053503          	ld	a0,80(a0)
    80003410:	fffff097          	auipc	ra,0xfffff
    80003414:	c28080e7          	jalr	-984(ra) # 80002038 <copyin>
  } else {
    memmove(dst, (char*)src, len);
    return 0;
  }
}
    80003418:	02813083          	ld	ra,40(sp)
    8000341c:	02013403          	ld	s0,32(sp)
    80003420:	01813483          	ld	s1,24(sp)
    80003424:	01013903          	ld	s2,16(sp)
    80003428:	00813983          	ld	s3,8(sp)
    8000342c:	00013a03          	ld	s4,0(sp)
    80003430:	03010113          	add	sp,sp,48
    80003434:	00008067          	ret
    memmove(dst, (char*)src, len);
    80003438:	000a061b          	sext.w	a2,s4
    8000343c:	00098593          	mv	a1,s3
    80003440:	00090513          	mv	a0,s2
    80003444:	ffffe097          	auipc	ra,0xffffe
    80003448:	d6c080e7          	jalr	-660(ra) # 800011b0 <memmove>
    return 0;
    8000344c:	00048513          	mv	a0,s1
    80003450:	fc9ff06f          	j	80003418 <either_copyin+0x54>

0000000080003454 <procdump>:
// Print a process listing to console.  For debugging.
// Runs when user types ^P on console.
// No lock to avoid wedging a stuck machine further.
void
procdump(void)
{
    80003454:	fb010113          	add	sp,sp,-80
    80003458:	04113423          	sd	ra,72(sp)
    8000345c:	04813023          	sd	s0,64(sp)
    80003460:	02913c23          	sd	s1,56(sp)
    80003464:	03213823          	sd	s2,48(sp)
    80003468:	03313423          	sd	s3,40(sp)
    8000346c:	03413023          	sd	s4,32(sp)
    80003470:	01513c23          	sd	s5,24(sp)
    80003474:	01613823          	sd	s6,16(sp)
    80003478:	01713423          	sd	s7,8(sp)
    8000347c:	05010413          	add	s0,sp,80
  [ZOMBIE]    "zombie"
  };
  struct proc *p;
  char *state;

  printf("\n");
    80003480:	00007517          	auipc	a0,0x7
    80003484:	03050513          	add	a0,a0,48 # 8000a4b0 <states.0+0x130>
    80003488:	ffffd097          	auipc	ra,0xffffd
    8000348c:	29c080e7          	jalr	668(ra) # 80000724 <printf>
  for(p = proc; p < &proc[NPROC]; p++){
    80003490:	00010497          	auipc	s1,0x10
    80003494:	ce848493          	add	s1,s1,-792 # 80013178 <proc+0x158>
    80003498:	00015917          	auipc	s2,0x15
    8000349c:	6e090913          	add	s2,s2,1760 # 80018b78 <bcache+0x140>
    if(p->state == UNUSED)
      continue;
    if(p->state >= 0 && p->state < NELEM(states) && states[p->state])
    800034a0:	00500b13          	li	s6,5
      state = states[p->state];
    else
      state = "???";
    800034a4:	00007997          	auipc	s3,0x7
    800034a8:	e9498993          	add	s3,s3,-364 # 8000a338 <digits+0x2f8>
    printf("%d %s %s", p->pid, state, p->name);
    800034ac:	00007a97          	auipc	s5,0x7
    800034b0:	e94a8a93          	add	s5,s5,-364 # 8000a340 <digits+0x300>
    printf("\n");
    800034b4:	00007a17          	auipc	s4,0x7
    800034b8:	ffca0a13          	add	s4,s4,-4 # 8000a4b0 <states.0+0x130>
    if(p->state >= 0 && p->state < NELEM(states) && states[p->state])
    800034bc:	00007b97          	auipc	s7,0x7
    800034c0:	ec4b8b93          	add	s7,s7,-316 # 8000a380 <states.0>
    800034c4:	0280006f          	j	800034ec <procdump+0x98>
    printf("%d %s %s", p->pid, state, p->name);
    800034c8:	ed86a583          	lw	a1,-296(a3)
    800034cc:	000a8513          	mv	a0,s5
    800034d0:	ffffd097          	auipc	ra,0xffffd
    800034d4:	254080e7          	jalr	596(ra) # 80000724 <printf>
    printf("\n");
    800034d8:	000a0513          	mv	a0,s4
    800034dc:	ffffd097          	auipc	ra,0xffffd
    800034e0:	248080e7          	jalr	584(ra) # 80000724 <printf>
  for(p = proc; p < &proc[NPROC]; p++){
    800034e4:	16848493          	add	s1,s1,360
    800034e8:	03248a63          	beq	s1,s2,8000351c <procdump+0xc8>
    if(p->state == UNUSED)
    800034ec:	00048693          	mv	a3,s1
    800034f0:	ec04a783          	lw	a5,-320(s1)
    800034f4:	fe0788e3          	beqz	a5,800034e4 <procdump+0x90>
      state = "???";
    800034f8:	00098613          	mv	a2,s3
    if(p->state >= 0 && p->state < NELEM(states) && states[p->state])
    800034fc:	fcfb66e3          	bltu	s6,a5,800034c8 <procdump+0x74>
    80003500:	02079713          	sll	a4,a5,0x20
    80003504:	01d75793          	srl	a5,a4,0x1d
    80003508:	00fb87b3          	add	a5,s7,a5
    8000350c:	0007b603          	ld	a2,0(a5)
    80003510:	fa061ce3          	bnez	a2,800034c8 <procdump+0x74>
      state = "???";
    80003514:	00098613          	mv	a2,s3
    80003518:	fb1ff06f          	j	800034c8 <procdump+0x74>
  }
}
    8000351c:	04813083          	ld	ra,72(sp)
    80003520:	04013403          	ld	s0,64(sp)
    80003524:	03813483          	ld	s1,56(sp)
    80003528:	03013903          	ld	s2,48(sp)
    8000352c:	02813983          	ld	s3,40(sp)
    80003530:	02013a03          	ld	s4,32(sp)
    80003534:	01813a83          	ld	s5,24(sp)
    80003538:	01013b03          	ld	s6,16(sp)
    8000353c:	00813b83          	ld	s7,8(sp)
    80003540:	05010113          	add	sp,sp,80
    80003544:	00008067          	ret

0000000080003548 <swtch>:
# Save current registers in old. Load from new.	


.globl swtch
swtch:
        sd ra, 0(a0)
    80003548:	00153023          	sd	ra,0(a0)
        sd sp, 8(a0)
    8000354c:	00253423          	sd	sp,8(a0)
        sd s0, 16(a0)
    80003550:	00853823          	sd	s0,16(a0)
        sd s1, 24(a0)
    80003554:	00953c23          	sd	s1,24(a0)
        sd s2, 32(a0)
    80003558:	03253023          	sd	s2,32(a0)
        sd s3, 40(a0)
    8000355c:	03353423          	sd	s3,40(a0)
        sd s4, 48(a0)
    80003560:	03453823          	sd	s4,48(a0)
        sd s5, 56(a0)
    80003564:	03553c23          	sd	s5,56(a0)
        sd s6, 64(a0)
    80003568:	05653023          	sd	s6,64(a0)
        sd s7, 72(a0)
    8000356c:	05753423          	sd	s7,72(a0)
        sd s8, 80(a0)
    80003570:	05853823          	sd	s8,80(a0)
        sd s9, 88(a0)
    80003574:	05953c23          	sd	s9,88(a0)
        sd s10, 96(a0)
    80003578:	07a53023          	sd	s10,96(a0)
        sd s11, 104(a0)
    8000357c:	07b53423          	sd	s11,104(a0)

        ld ra, 0(a1)
    80003580:	0005b083          	ld	ra,0(a1)
        ld sp, 8(a1)
    80003584:	0085b103          	ld	sp,8(a1)
        ld s0, 16(a1)
    80003588:	0105b403          	ld	s0,16(a1)
        ld s1, 24(a1)
    8000358c:	0185b483          	ld	s1,24(a1)
        ld s2, 32(a1)
    80003590:	0205b903          	ld	s2,32(a1)
        ld s3, 40(a1)
    80003594:	0285b983          	ld	s3,40(a1)
        ld s4, 48(a1)
    80003598:	0305ba03          	ld	s4,48(a1)
        ld s5, 56(a1)
    8000359c:	0385ba83          	ld	s5,56(a1)
        ld s6, 64(a1)
    800035a0:	0405bb03          	ld	s6,64(a1)
        ld s7, 72(a1)
    800035a4:	0485bb83          	ld	s7,72(a1)
        ld s8, 80(a1)
    800035a8:	0505bc03          	ld	s8,80(a1)
        ld s9, 88(a1)
    800035ac:	0585bc83          	ld	s9,88(a1)
        ld s10, 96(a1)
    800035b0:	0605bd03          	ld	s10,96(a1)
        ld s11, 104(a1)
    800035b4:	0685bd83          	ld	s11,104(a1)
        
        ret
    800035b8:	00008067          	ret

00000000800035bc <trapinit>:

extern int devintr();

void
trapinit(void)
{
    800035bc:	ff010113          	add	sp,sp,-16
    800035c0:	00113423          	sd	ra,8(sp)
    800035c4:	00813023          	sd	s0,0(sp)
    800035c8:	01010413          	add	s0,sp,16
  initlock(&tickslock, "time");
    800035cc:	00007597          	auipc	a1,0x7
    800035d0:	de458593          	add	a1,a1,-540 # 8000a3b0 <states.0+0x30>
    800035d4:	00015517          	auipc	a0,0x15
    800035d8:	44c50513          	add	a0,a0,1100 # 80018a20 <tickslock>
    800035dc:	ffffe097          	auipc	ra,0xffffe
    800035e0:	904080e7          	jalr	-1788(ra) # 80000ee0 <initlock>
}
    800035e4:	00813083          	ld	ra,8(sp)
    800035e8:	00013403          	ld	s0,0(sp)
    800035ec:	01010113          	add	sp,sp,16
    800035f0:	00008067          	ret

00000000800035f4 <trapinithart>:

// set up to take exceptions and traps while in the kernel.
void
trapinithart(void)
{
    800035f4:	ff010113          	add	sp,sp,-16
    800035f8:	00813423          	sd	s0,8(sp)
    800035fc:	01010413          	add	s0,sp,16
  asm volatile("csrw stvec, %0" : : "r" (x));
    80003600:	00004797          	auipc	a5,0x4
    80003604:	7a078793          	add	a5,a5,1952 # 80007da0 <kernelvec>
    80003608:	10579073          	csrw	stvec,a5
  w_stvec((uint64)kernelvec);
}
    8000360c:	00813403          	ld	s0,8(sp)
    80003610:	01010113          	add	sp,sp,16
    80003614:	00008067          	ret

0000000080003618 <usertrapret>:
//
// return to user space
//
void
usertrapret(void)
{
    80003618:	ff010113          	add	sp,sp,-16
    8000361c:	00113423          	sd	ra,8(sp)
    80003620:	00813023          	sd	s0,0(sp)
    80003624:	01010413          	add	s0,sp,16
  struct proc *p = myproc();
    80003628:	fffff097          	auipc	ra,0xfffff
    8000362c:	e2c080e7          	jalr	-468(ra) # 80002454 <myproc>
  asm volatile("csrr %0, sstatus" : "=r" (x) );
    80003630:	100027f3          	csrr	a5,sstatus
  w_sstatus(r_sstatus() & ~SSTATUS_SIE);
    80003634:	ffd7f793          	and	a5,a5,-3
  asm volatile("csrw sstatus, %0" : : "r" (x));
    80003638:	10079073          	csrw	sstatus,a5
  // kerneltrap() to usertrap(), so turn off interrupts until
  // we're back in user space, where usertrap() is correct.
  intr_off();

  // send syscalls, interrupts, and exceptions to uservec in trampoline.S
  uint64 trampoline_uservec = TRAMPOLINE + (uservec - trampoline);
    8000363c:	00006697          	auipc	a3,0x6
    80003640:	9c468693          	add	a3,a3,-1596 # 80009000 <_trampoline>
    80003644:	00006717          	auipc	a4,0x6
    80003648:	9bc70713          	add	a4,a4,-1604 # 80009000 <_trampoline>
    8000364c:	40d70733          	sub	a4,a4,a3
    80003650:	040007b7          	lui	a5,0x4000
    80003654:	fff78793          	add	a5,a5,-1 # 3ffffff <_entry-0x7c000001>
    80003658:	00c79793          	sll	a5,a5,0xc
    8000365c:	00f70733          	add	a4,a4,a5
  asm volatile("csrw stvec, %0" : : "r" (x));
    80003660:	10571073          	csrw	stvec,a4
  w_stvec(trampoline_uservec);

  // set up trapframe values that uservec will need when
  // the process next traps into the kernel.
  p->trapframe->kernel_satp = r_satp();         // kernel page table
    80003664:	05853703          	ld	a4,88(a0)
  asm volatile("csrr %0, satp" : "=r" (x) );
    80003668:	18002673          	csrr	a2,satp
    8000366c:	00c73023          	sd	a2,0(a4)
  p->trapframe->kernel_sp = p->kstack + PGSIZE; // process's kernel stack
    80003670:	05853603          	ld	a2,88(a0)
    80003674:	04053703          	ld	a4,64(a0)
    80003678:	000015b7          	lui	a1,0x1
    8000367c:	00b70733          	add	a4,a4,a1
    80003680:	00e63423          	sd	a4,8(a2) # 1008 <_entry-0x7fffeff8>
  p->trapframe->kernel_trap = (uint64)usertrap;
    80003684:	05853703          	ld	a4,88(a0)
    80003688:	00000617          	auipc	a2,0x0
    8000368c:	1b860613          	add	a2,a2,440 # 80003840 <usertrap>
    80003690:	00c73823          	sd	a2,16(a4)
  p->trapframe->kernel_hartid = r_tp();         // hartid for cpuid()
    80003694:	05853703          	ld	a4,88(a0)
  asm volatile("mv %0, tp" : "=r" (x) );
    80003698:	00020613          	mv	a2,tp
    8000369c:	02c73023          	sd	a2,32(a4)
  asm volatile("csrr %0, sstatus" : "=r" (x) );
    800036a0:	10002773          	csrr	a4,sstatus
  // set up the registers that trampoline.S's sret will use
  // to get to user space.
  
  // set S Previous Privilege mode to User.
  unsigned long x = r_sstatus();
  x &= ~SSTATUS_SPP; // clear SPP to 0 for user mode
    800036a4:	eff77713          	and	a4,a4,-257
  x |= SSTATUS_SPIE; // enable interrupts in user mode
    800036a8:	02076713          	or	a4,a4,32
  asm volatile("csrw sstatus, %0" : : "r" (x));
    800036ac:	10071073          	csrw	sstatus,a4
  w_sstatus(x);

  // set S Exception Program Counter to the saved user pc.
  w_sepc(p->trapframe->epc);
    800036b0:	05853703          	ld	a4,88(a0)
  asm volatile("csrw sepc, %0" : : "r" (x));
    800036b4:	01873703          	ld	a4,24(a4)
    800036b8:	14171073          	csrw	sepc,a4

  // tell trampoline.S the user page table to switch to.
  uint64 satp = MAKE_SATP(p->pagetable);
    800036bc:	05053503          	ld	a0,80(a0)
    800036c0:	00c55513          	srl	a0,a0,0xc

  // jump to userret in trampoline.S at the top of memory, which 
  // switches to the user page table, restores user registers,
  // and switches to user mode with sret.
  uint64 trampoline_userret = TRAMPOLINE + (userret - trampoline);
    800036c4:	00006717          	auipc	a4,0x6
    800036c8:	9ec70713          	add	a4,a4,-1556 # 800090b0 <userret>
    800036cc:	40d70733          	sub	a4,a4,a3
    800036d0:	00f707b3          	add	a5,a4,a5
  ((void (*)(uint64))trampoline_userret)(satp);
    800036d4:	fff00713          	li	a4,-1
    800036d8:	03f71713          	sll	a4,a4,0x3f
    800036dc:	00e56533          	or	a0,a0,a4
    800036e0:	000780e7          	jalr	a5
}
    800036e4:	00813083          	ld	ra,8(sp)
    800036e8:	00013403          	ld	s0,0(sp)
    800036ec:	01010113          	add	sp,sp,16
    800036f0:	00008067          	ret

00000000800036f4 <clockintr>:
  w_sstatus(sstatus);
}

void
clockintr()
{
    800036f4:	fe010113          	add	sp,sp,-32
    800036f8:	00113c23          	sd	ra,24(sp)
    800036fc:	00813823          	sd	s0,16(sp)
    80003700:	00913423          	sd	s1,8(sp)
    80003704:	02010413          	add	s0,sp,32
  acquire(&tickslock);
    80003708:	00015497          	auipc	s1,0x15
    8000370c:	31848493          	add	s1,s1,792 # 80018a20 <tickslock>
    80003710:	00048513          	mv	a0,s1
    80003714:	ffffe097          	auipc	ra,0xffffe
    80003718:	8b0080e7          	jalr	-1872(ra) # 80000fc4 <acquire>
  ticks++;
    8000371c:	00007517          	auipc	a0,0x7
    80003720:	26450513          	add	a0,a0,612 # 8000a980 <ticks>
    80003724:	00052783          	lw	a5,0(a0)
    80003728:	0017879b          	addw	a5,a5,1
    8000372c:	00f52023          	sw	a5,0(a0)
  wakeup(&ticks);
    80003730:	fffff097          	auipc	ra,0xfffff
    80003734:	6fc080e7          	jalr	1788(ra) # 80002e2c <wakeup>
  release(&tickslock);
    80003738:	00048513          	mv	a0,s1
    8000373c:	ffffe097          	auipc	ra,0xffffe
    80003740:	980080e7          	jalr	-1664(ra) # 800010bc <release>
}
    80003744:	01813083          	ld	ra,24(sp)
    80003748:	01013403          	ld	s0,16(sp)
    8000374c:	00813483          	ld	s1,8(sp)
    80003750:	02010113          	add	sp,sp,32
    80003754:	00008067          	ret

0000000080003758 <devintr>:
  asm volatile("csrr %0, scause" : "=r" (x) );
    80003758:	142027f3          	csrr	a5,scause
    // the SSIP bit in sip.
    w_sip(r_sip() & ~2);

    return 2;
  } else {
    return 0;
    8000375c:	00000513          	li	a0,0
  if((scause & 0x8000000000000000L) &&
    80003760:	0c07de63          	bgez	a5,8000383c <devintr+0xe4>
{
    80003764:	fe010113          	add	sp,sp,-32
    80003768:	00113c23          	sd	ra,24(sp)
    8000376c:	00813823          	sd	s0,16(sp)
    80003770:	00913423          	sd	s1,8(sp)
    80003774:	02010413          	add	s0,sp,32
     (scause & 0xff) == 9){
    80003778:	0ff7f713          	zext.b	a4,a5
  if((scause & 0x8000000000000000L) &&
    8000377c:	00900693          	li	a3,9
    80003780:	02d70663          	beq	a4,a3,800037ac <devintr+0x54>
  } else if(scause == 0x8000000000000001L){
    80003784:	fff00713          	li	a4,-1
    80003788:	03f71713          	sll	a4,a4,0x3f
    8000378c:	00170713          	add	a4,a4,1
    return 0;
    80003790:	00000513          	li	a0,0
  } else if(scause == 0x8000000000000001L){
    80003794:	06e78e63          	beq	a5,a4,80003810 <devintr+0xb8>
  }
}
    80003798:	01813083          	ld	ra,24(sp)
    8000379c:	01013403          	ld	s0,16(sp)
    800037a0:	00813483          	ld	s1,8(sp)
    800037a4:	02010113          	add	sp,sp,32
    800037a8:	00008067          	ret
    int irq = plic_claim();
    800037ac:	00004097          	auipc	ra,0x4
    800037b0:	7b8080e7          	jalr	1976(ra) # 80007f64 <plic_claim>
    800037b4:	00050493          	mv	s1,a0
    if(irq == UART0_IRQ){
    800037b8:	00a00793          	li	a5,10
    800037bc:	02f50e63          	beq	a0,a5,800037f8 <devintr+0xa0>
    } else if(irq == VIRTIO0_IRQ){
    800037c0:	00100793          	li	a5,1
    800037c4:	04f50063          	beq	a0,a5,80003804 <devintr+0xac>
    return 1;
    800037c8:	00100513          	li	a0,1
    } else if(irq){
    800037cc:	fc0486e3          	beqz	s1,80003798 <devintr+0x40>
      printf("unexpected interrupt irq=%d\n", irq);
    800037d0:	00048593          	mv	a1,s1
    800037d4:	00007517          	auipc	a0,0x7
    800037d8:	be450513          	add	a0,a0,-1052 # 8000a3b8 <states.0+0x38>
    800037dc:	ffffd097          	auipc	ra,0xffffd
    800037e0:	f48080e7          	jalr	-184(ra) # 80000724 <printf>
      plic_complete(irq);
    800037e4:	00048513          	mv	a0,s1
    800037e8:	00004097          	auipc	ra,0x4
    800037ec:	7b4080e7          	jalr	1972(ra) # 80007f9c <plic_complete>
    return 1;
    800037f0:	00100513          	li	a0,1
    800037f4:	fa5ff06f          	j	80003798 <devintr+0x40>
      uartintr();
    800037f8:	ffffd097          	auipc	ra,0xffffd
    800037fc:	488080e7          	jalr	1160(ra) # 80000c80 <uartintr>
    if(irq)
    80003800:	fe5ff06f          	j	800037e4 <devintr+0x8c>
      virtio_disk_intr();
    80003804:	00005097          	auipc	ra,0x5
    80003808:	dcc080e7          	jalr	-564(ra) # 800085d0 <virtio_disk_intr>
    if(irq)
    8000380c:	fd9ff06f          	j	800037e4 <devintr+0x8c>
    if(cpuid() == 0){
    80003810:	fffff097          	auipc	ra,0xfffff
    80003814:	bf4080e7          	jalr	-1036(ra) # 80002404 <cpuid>
    80003818:	00050c63          	beqz	a0,80003830 <devintr+0xd8>
  asm volatile("csrr %0, sip" : "=r" (x) );
    8000381c:	144027f3          	csrr	a5,sip
    w_sip(r_sip() & ~2);
    80003820:	ffd7f793          	and	a5,a5,-3
  asm volatile("csrw sip, %0" : : "r" (x));
    80003824:	14479073          	csrw	sip,a5
    return 2;
    80003828:	00200513          	li	a0,2
    8000382c:	f6dff06f          	j	80003798 <devintr+0x40>
      clockintr();
    80003830:	00000097          	auipc	ra,0x0
    80003834:	ec4080e7          	jalr	-316(ra) # 800036f4 <clockintr>
    80003838:	fe5ff06f          	j	8000381c <devintr+0xc4>
}
    8000383c:	00008067          	ret

0000000080003840 <usertrap>:
{
    80003840:	fe010113          	add	sp,sp,-32
    80003844:	00113c23          	sd	ra,24(sp)
    80003848:	00813823          	sd	s0,16(sp)
    8000384c:	00913423          	sd	s1,8(sp)
    80003850:	01213023          	sd	s2,0(sp)
    80003854:	02010413          	add	s0,sp,32
  asm volatile("csrr %0, sstatus" : "=r" (x) );
    80003858:	100027f3          	csrr	a5,sstatus
  if((r_sstatus() & SSTATUS_SPP) != 0)
    8000385c:	1007f793          	and	a5,a5,256
    80003860:	04079c63          	bnez	a5,800038b8 <usertrap+0x78>
  asm volatile("csrw stvec, %0" : : "r" (x));
    80003864:	00004797          	auipc	a5,0x4
    80003868:	53c78793          	add	a5,a5,1340 # 80007da0 <kernelvec>
    8000386c:	10579073          	csrw	stvec,a5
  struct proc *p = myproc();
    80003870:	fffff097          	auipc	ra,0xfffff
    80003874:	be4080e7          	jalr	-1052(ra) # 80002454 <myproc>
    80003878:	00050493          	mv	s1,a0
  p->trapframe->epc = r_sepc();
    8000387c:	05853783          	ld	a5,88(a0)
  asm volatile("csrr %0, sepc" : "=r" (x) );
    80003880:	14102773          	csrr	a4,sepc
    80003884:	00e7bc23          	sd	a4,24(a5)
  asm volatile("csrr %0, scause" : "=r" (x) );
    80003888:	14202773          	csrr	a4,scause
  if(r_scause() == 8){
    8000388c:	00800793          	li	a5,8
    80003890:	02f70c63          	beq	a4,a5,800038c8 <usertrap+0x88>
  } else if((which_dev = devintr()) != 0){
    80003894:	00000097          	auipc	ra,0x0
    80003898:	ec4080e7          	jalr	-316(ra) # 80003758 <devintr>
    8000389c:	00050913          	mv	s2,a0
    800038a0:	0a050863          	beqz	a0,80003950 <usertrap+0x110>
  if(killed(p))
    800038a4:	00048513          	mv	a0,s1
    800038a8:	00000097          	auipc	ra,0x0
    800038ac:	8a4080e7          	jalr	-1884(ra) # 8000314c <killed>
    800038b0:	06050463          	beqz	a0,80003918 <usertrap+0xd8>
    800038b4:	0580006f          	j	8000390c <usertrap+0xcc>
    panic("usertrap: not from user mode");
    800038b8:	00007517          	auipc	a0,0x7
    800038bc:	b2050513          	add	a0,a0,-1248 # 8000a3d8 <states.0+0x58>
    800038c0:	ffffd097          	auipc	ra,0xffffd
    800038c4:	e08080e7          	jalr	-504(ra) # 800006c8 <panic>
    if(killed(p))
    800038c8:	00000097          	auipc	ra,0x0
    800038cc:	884080e7          	jalr	-1916(ra) # 8000314c <killed>
    800038d0:	06051863          	bnez	a0,80003940 <usertrap+0x100>
    p->trapframe->epc += 4;
    800038d4:	0584b703          	ld	a4,88(s1)
    800038d8:	01873783          	ld	a5,24(a4)
    800038dc:	00478793          	add	a5,a5,4
    800038e0:	00f73c23          	sd	a5,24(a4)
  asm volatile("csrr %0, sstatus" : "=r" (x) );
    800038e4:	100027f3          	csrr	a5,sstatus
  w_sstatus(r_sstatus() | SSTATUS_SIE);
    800038e8:	0027e793          	or	a5,a5,2
  asm volatile("csrw sstatus, %0" : : "r" (x));
    800038ec:	10079073          	csrw	sstatus,a5
    syscall();
    800038f0:	00000097          	auipc	ra,0x0
    800038f4:	418080e7          	jalr	1048(ra) # 80003d08 <syscall>
  if(killed(p))
    800038f8:	00048513          	mv	a0,s1
    800038fc:	00000097          	auipc	ra,0x0
    80003900:	850080e7          	jalr	-1968(ra) # 8000314c <killed>
    80003904:	00050e63          	beqz	a0,80003920 <usertrap+0xe0>
    80003908:	00000913          	li	s2,0
    exit(-1);
    8000390c:	fff00513          	li	a0,-1
    80003910:	fffff097          	auipc	ra,0xfffff
    80003914:	64c080e7          	jalr	1612(ra) # 80002f5c <exit>
  if(which_dev == 2)
    80003918:	00200793          	li	a5,2
    8000391c:	06f90a63          	beq	s2,a5,80003990 <usertrap+0x150>
  usertrapret();
    80003920:	00000097          	auipc	ra,0x0
    80003924:	cf8080e7          	jalr	-776(ra) # 80003618 <usertrapret>
}
    80003928:	01813083          	ld	ra,24(sp)
    8000392c:	01013403          	ld	s0,16(sp)
    80003930:	00813483          	ld	s1,8(sp)
    80003934:	00013903          	ld	s2,0(sp)
    80003938:	02010113          	add	sp,sp,32
    8000393c:	00008067          	ret
      exit(-1);
    80003940:	fff00513          	li	a0,-1
    80003944:	fffff097          	auipc	ra,0xfffff
    80003948:	618080e7          	jalr	1560(ra) # 80002f5c <exit>
    8000394c:	f89ff06f          	j	800038d4 <usertrap+0x94>
  asm volatile("csrr %0, scause" : "=r" (x) );
    80003950:	142025f3          	csrr	a1,scause
    printf("usertrap(): unexpected scause %p pid=%d\n", r_scause(), p->pid);
    80003954:	0304a603          	lw	a2,48(s1)
    80003958:	00007517          	auipc	a0,0x7
    8000395c:	aa050513          	add	a0,a0,-1376 # 8000a3f8 <states.0+0x78>
    80003960:	ffffd097          	auipc	ra,0xffffd
    80003964:	dc4080e7          	jalr	-572(ra) # 80000724 <printf>
  asm volatile("csrr %0, sepc" : "=r" (x) );
    80003968:	141025f3          	csrr	a1,sepc
  asm volatile("csrr %0, stval" : "=r" (x) );
    8000396c:	14302673          	csrr	a2,stval
    printf("            sepc=%p stval=%p\n", r_sepc(), r_stval());
    80003970:	00007517          	auipc	a0,0x7
    80003974:	ab850513          	add	a0,a0,-1352 # 8000a428 <states.0+0xa8>
    80003978:	ffffd097          	auipc	ra,0xffffd
    8000397c:	dac080e7          	jalr	-596(ra) # 80000724 <printf>
    setkilled(p);
    80003980:	00048513          	mv	a0,s1
    80003984:	fffff097          	auipc	ra,0xfffff
    80003988:	780080e7          	jalr	1920(ra) # 80003104 <setkilled>
    8000398c:	f6dff06f          	j	800038f8 <usertrap+0xb8>
    yield();
    80003990:	fffff097          	auipc	ra,0xfffff
    80003994:	3b4080e7          	jalr	948(ra) # 80002d44 <yield>
    80003998:	f89ff06f          	j	80003920 <usertrap+0xe0>

000000008000399c <kerneltrap>:
{
    8000399c:	fd010113          	add	sp,sp,-48
    800039a0:	02113423          	sd	ra,40(sp)
    800039a4:	02813023          	sd	s0,32(sp)
    800039a8:	00913c23          	sd	s1,24(sp)
    800039ac:	01213823          	sd	s2,16(sp)
    800039b0:	01313423          	sd	s3,8(sp)
    800039b4:	03010413          	add	s0,sp,48
  asm volatile("csrr %0, sepc" : "=r" (x) );
    800039b8:	14102973          	csrr	s2,sepc
  asm volatile("csrr %0, sstatus" : "=r" (x) );
    800039bc:	100024f3          	csrr	s1,sstatus
  asm volatile("csrr %0, scause" : "=r" (x) );
    800039c0:	142029f3          	csrr	s3,scause
  if((sstatus & SSTATUS_SPP) == 0)
    800039c4:	1004f793          	and	a5,s1,256
    800039c8:	04078463          	beqz	a5,80003a10 <kerneltrap+0x74>
  asm volatile("csrr %0, sstatus" : "=r" (x) );
    800039cc:	100027f3          	csrr	a5,sstatus
  return (x & SSTATUS_SIE) != 0;
    800039d0:	0027f793          	and	a5,a5,2
  if(intr_get() != 0)
    800039d4:	04079663          	bnez	a5,80003a20 <kerneltrap+0x84>
  if((which_dev = devintr()) == 0){
    800039d8:	00000097          	auipc	ra,0x0
    800039dc:	d80080e7          	jalr	-640(ra) # 80003758 <devintr>
    800039e0:	04050863          	beqz	a0,80003a30 <kerneltrap+0x94>
  if(which_dev == 2 && myproc() != 0 && myproc()->state == RUNNING)
    800039e4:	00200793          	li	a5,2
    800039e8:	08f50263          	beq	a0,a5,80003a6c <kerneltrap+0xd0>
  asm volatile("csrw sepc, %0" : : "r" (x));
    800039ec:	14191073          	csrw	sepc,s2
  asm volatile("csrw sstatus, %0" : : "r" (x));
    800039f0:	10049073          	csrw	sstatus,s1
}
    800039f4:	02813083          	ld	ra,40(sp)
    800039f8:	02013403          	ld	s0,32(sp)
    800039fc:	01813483          	ld	s1,24(sp)
    80003a00:	01013903          	ld	s2,16(sp)
    80003a04:	00813983          	ld	s3,8(sp)
    80003a08:	03010113          	add	sp,sp,48
    80003a0c:	00008067          	ret
    panic("kerneltrap: not from supervisor mode");
    80003a10:	00007517          	auipc	a0,0x7
    80003a14:	a3850513          	add	a0,a0,-1480 # 8000a448 <states.0+0xc8>
    80003a18:	ffffd097          	auipc	ra,0xffffd
    80003a1c:	cb0080e7          	jalr	-848(ra) # 800006c8 <panic>
    panic("kerneltrap: interrupts enabled");
    80003a20:	00007517          	auipc	a0,0x7
    80003a24:	a5050513          	add	a0,a0,-1456 # 8000a470 <states.0+0xf0>
    80003a28:	ffffd097          	auipc	ra,0xffffd
    80003a2c:	ca0080e7          	jalr	-864(ra) # 800006c8 <panic>
    printf("scause %p\n", scause);
    80003a30:	00098593          	mv	a1,s3
    80003a34:	00007517          	auipc	a0,0x7
    80003a38:	a5c50513          	add	a0,a0,-1444 # 8000a490 <states.0+0x110>
    80003a3c:	ffffd097          	auipc	ra,0xffffd
    80003a40:	ce8080e7          	jalr	-792(ra) # 80000724 <printf>
  asm volatile("csrr %0, sepc" : "=r" (x) );
    80003a44:	141025f3          	csrr	a1,sepc
  asm volatile("csrr %0, stval" : "=r" (x) );
    80003a48:	14302673          	csrr	a2,stval
    printf("sepc=%p stval=%p\n", r_sepc(), r_stval());
    80003a4c:	00007517          	auipc	a0,0x7
    80003a50:	a5450513          	add	a0,a0,-1452 # 8000a4a0 <states.0+0x120>
    80003a54:	ffffd097          	auipc	ra,0xffffd
    80003a58:	cd0080e7          	jalr	-816(ra) # 80000724 <printf>
    panic("kerneltrap");
    80003a5c:	00007517          	auipc	a0,0x7
    80003a60:	a5c50513          	add	a0,a0,-1444 # 8000a4b8 <states.0+0x138>
    80003a64:	ffffd097          	auipc	ra,0xffffd
    80003a68:	c64080e7          	jalr	-924(ra) # 800006c8 <panic>
  if(which_dev == 2 && myproc() != 0 && myproc()->state == RUNNING)
    80003a6c:	fffff097          	auipc	ra,0xfffff
    80003a70:	9e8080e7          	jalr	-1560(ra) # 80002454 <myproc>
    80003a74:	f6050ce3          	beqz	a0,800039ec <kerneltrap+0x50>
    80003a78:	fffff097          	auipc	ra,0xfffff
    80003a7c:	9dc080e7          	jalr	-1572(ra) # 80002454 <myproc>
    80003a80:	01852703          	lw	a4,24(a0)
    80003a84:	00400793          	li	a5,4
    80003a88:	f6f712e3          	bne	a4,a5,800039ec <kerneltrap+0x50>
    yield();
    80003a8c:	fffff097          	auipc	ra,0xfffff
    80003a90:	2b8080e7          	jalr	696(ra) # 80002d44 <yield>
    80003a94:	f59ff06f          	j	800039ec <kerneltrap+0x50>

0000000080003a98 <argraw>:
  return strlen(buf);
}

static uint64
argraw(int n)
{
    80003a98:	fe010113          	add	sp,sp,-32
    80003a9c:	00113c23          	sd	ra,24(sp)
    80003aa0:	00813823          	sd	s0,16(sp)
    80003aa4:	00913423          	sd	s1,8(sp)
    80003aa8:	02010413          	add	s0,sp,32
    80003aac:	00050493          	mv	s1,a0
  struct proc *p = myproc();
    80003ab0:	fffff097          	auipc	ra,0xfffff
    80003ab4:	9a4080e7          	jalr	-1628(ra) # 80002454 <myproc>
  switch (n) {
    80003ab8:	00500793          	li	a5,5
    80003abc:	0697ec63          	bltu	a5,s1,80003b34 <argraw+0x9c>
    80003ac0:	00249493          	sll	s1,s1,0x2
    80003ac4:	00007717          	auipc	a4,0x7
    80003ac8:	a2c70713          	add	a4,a4,-1492 # 8000a4f0 <states.0+0x170>
    80003acc:	00e484b3          	add	s1,s1,a4
    80003ad0:	0004a783          	lw	a5,0(s1)
    80003ad4:	00e787b3          	add	a5,a5,a4
    80003ad8:	00078067          	jr	a5
  case 0:
    return p->trapframe->a0;
    80003adc:	05853783          	ld	a5,88(a0)
    80003ae0:	0707b503          	ld	a0,112(a5)
  case 5:
    return p->trapframe->a5;
  }
  panic("argraw");
  return -1;
}
    80003ae4:	01813083          	ld	ra,24(sp)
    80003ae8:	01013403          	ld	s0,16(sp)
    80003aec:	00813483          	ld	s1,8(sp)
    80003af0:	02010113          	add	sp,sp,32
    80003af4:	00008067          	ret
    return p->trapframe->a1;
    80003af8:	05853783          	ld	a5,88(a0)
    80003afc:	0787b503          	ld	a0,120(a5)
    80003b00:	fe5ff06f          	j	80003ae4 <argraw+0x4c>
    return p->trapframe->a2;
    80003b04:	05853783          	ld	a5,88(a0)
    80003b08:	0807b503          	ld	a0,128(a5)
    80003b0c:	fd9ff06f          	j	80003ae4 <argraw+0x4c>
    return p->trapframe->a3;
    80003b10:	05853783          	ld	a5,88(a0)
    80003b14:	0887b503          	ld	a0,136(a5)
    80003b18:	fcdff06f          	j	80003ae4 <argraw+0x4c>
    return p->trapframe->a4;
    80003b1c:	05853783          	ld	a5,88(a0)
    80003b20:	0907b503          	ld	a0,144(a5)
    80003b24:	fc1ff06f          	j	80003ae4 <argraw+0x4c>
    return p->trapframe->a5;
    80003b28:	05853783          	ld	a5,88(a0)
    80003b2c:	0987b503          	ld	a0,152(a5)
    80003b30:	fb5ff06f          	j	80003ae4 <argraw+0x4c>
  panic("argraw");
    80003b34:	00007517          	auipc	a0,0x7
    80003b38:	99450513          	add	a0,a0,-1644 # 8000a4c8 <states.0+0x148>
    80003b3c:	ffffd097          	auipc	ra,0xffffd
    80003b40:	b8c080e7          	jalr	-1140(ra) # 800006c8 <panic>

0000000080003b44 <fetchaddr>:
{
    80003b44:	fe010113          	add	sp,sp,-32
    80003b48:	00113c23          	sd	ra,24(sp)
    80003b4c:	00813823          	sd	s0,16(sp)
    80003b50:	00913423          	sd	s1,8(sp)
    80003b54:	01213023          	sd	s2,0(sp)
    80003b58:	02010413          	add	s0,sp,32
    80003b5c:	00050493          	mv	s1,a0
    80003b60:	00058913          	mv	s2,a1
  struct proc *p = myproc();
    80003b64:	fffff097          	auipc	ra,0xfffff
    80003b68:	8f0080e7          	jalr	-1808(ra) # 80002454 <myproc>
  if(addr >= p->sz || addr+sizeof(uint64) > p->sz) // both tests needed, in case of overflow
    80003b6c:	04853783          	ld	a5,72(a0)
    80003b70:	04f4f263          	bgeu	s1,a5,80003bb4 <fetchaddr+0x70>
    80003b74:	00848713          	add	a4,s1,8
    80003b78:	04e7e263          	bltu	a5,a4,80003bbc <fetchaddr+0x78>
  if(copyin(p->pagetable, (char *)ip, addr, sizeof(*ip)) != 0)
    80003b7c:	00800693          	li	a3,8
    80003b80:	00048613          	mv	a2,s1
    80003b84:	00090593          	mv	a1,s2
    80003b88:	05053503          	ld	a0,80(a0)
    80003b8c:	ffffe097          	auipc	ra,0xffffe
    80003b90:	4ac080e7          	jalr	1196(ra) # 80002038 <copyin>
    80003b94:	00a03533          	snez	a0,a0
    80003b98:	40a00533          	neg	a0,a0
}
    80003b9c:	01813083          	ld	ra,24(sp)
    80003ba0:	01013403          	ld	s0,16(sp)
    80003ba4:	00813483          	ld	s1,8(sp)
    80003ba8:	00013903          	ld	s2,0(sp)
    80003bac:	02010113          	add	sp,sp,32
    80003bb0:	00008067          	ret
    return -1;
    80003bb4:	fff00513          	li	a0,-1
    80003bb8:	fe5ff06f          	j	80003b9c <fetchaddr+0x58>
    80003bbc:	fff00513          	li	a0,-1
    80003bc0:	fddff06f          	j	80003b9c <fetchaddr+0x58>

0000000080003bc4 <fetchstr>:
{
    80003bc4:	fd010113          	add	sp,sp,-48
    80003bc8:	02113423          	sd	ra,40(sp)
    80003bcc:	02813023          	sd	s0,32(sp)
    80003bd0:	00913c23          	sd	s1,24(sp)
    80003bd4:	01213823          	sd	s2,16(sp)
    80003bd8:	01313423          	sd	s3,8(sp)
    80003bdc:	03010413          	add	s0,sp,48
    80003be0:	00050913          	mv	s2,a0
    80003be4:	00058493          	mv	s1,a1
    80003be8:	00060993          	mv	s3,a2
  struct proc *p = myproc();
    80003bec:	fffff097          	auipc	ra,0xfffff
    80003bf0:	868080e7          	jalr	-1944(ra) # 80002454 <myproc>
  if(copyinstr(p->pagetable, buf, addr, max) < 0)
    80003bf4:	00098693          	mv	a3,s3
    80003bf8:	00090613          	mv	a2,s2
    80003bfc:	00048593          	mv	a1,s1
    80003c00:	05053503          	ld	a0,80(a0)
    80003c04:	ffffe097          	auipc	ra,0xffffe
    80003c08:	51c080e7          	jalr	1308(ra) # 80002120 <copyinstr>
    80003c0c:	02054663          	bltz	a0,80003c38 <fetchstr+0x74>
  return strlen(buf);
    80003c10:	00048513          	mv	a0,s1
    80003c14:	ffffd097          	auipc	ra,0xffffd
    80003c18:	754080e7          	jalr	1876(ra) # 80001368 <strlen>
}
    80003c1c:	02813083          	ld	ra,40(sp)
    80003c20:	02013403          	ld	s0,32(sp)
    80003c24:	01813483          	ld	s1,24(sp)
    80003c28:	01013903          	ld	s2,16(sp)
    80003c2c:	00813983          	ld	s3,8(sp)
    80003c30:	03010113          	add	sp,sp,48
    80003c34:	00008067          	ret
    return -1;
    80003c38:	fff00513          	li	a0,-1
    80003c3c:	fe1ff06f          	j	80003c1c <fetchstr+0x58>

0000000080003c40 <argint>:

// Fetch the nth 32-bit system call argument.
void
argint(int n, int *ip)
{
    80003c40:	fe010113          	add	sp,sp,-32
    80003c44:	00113c23          	sd	ra,24(sp)
    80003c48:	00813823          	sd	s0,16(sp)
    80003c4c:	00913423          	sd	s1,8(sp)
    80003c50:	02010413          	add	s0,sp,32
    80003c54:	00058493          	mv	s1,a1
  *ip = argraw(n);
    80003c58:	00000097          	auipc	ra,0x0
    80003c5c:	e40080e7          	jalr	-448(ra) # 80003a98 <argraw>
    80003c60:	00a4a023          	sw	a0,0(s1)
}
    80003c64:	01813083          	ld	ra,24(sp)
    80003c68:	01013403          	ld	s0,16(sp)
    80003c6c:	00813483          	ld	s1,8(sp)
    80003c70:	02010113          	add	sp,sp,32
    80003c74:	00008067          	ret

0000000080003c78 <argaddr>:
// Retrieve an argument as a pointer.
// Doesn't check for legality, since
// copyin/copyout will do that.
void
argaddr(int n, uint64 *ip)
{
    80003c78:	fe010113          	add	sp,sp,-32
    80003c7c:	00113c23          	sd	ra,24(sp)
    80003c80:	00813823          	sd	s0,16(sp)
    80003c84:	00913423          	sd	s1,8(sp)
    80003c88:	02010413          	add	s0,sp,32
    80003c8c:	00058493          	mv	s1,a1
  *ip = argraw(n);
    80003c90:	00000097          	auipc	ra,0x0
    80003c94:	e08080e7          	jalr	-504(ra) # 80003a98 <argraw>
    80003c98:	00a4b023          	sd	a0,0(s1)
}
    80003c9c:	01813083          	ld	ra,24(sp)
    80003ca0:	01013403          	ld	s0,16(sp)
    80003ca4:	00813483          	ld	s1,8(sp)
    80003ca8:	02010113          	add	sp,sp,32
    80003cac:	00008067          	ret

0000000080003cb0 <argstr>:
// Fetch the nth word-sized system call argument as a null-terminated string.
// Copies into buf, at most max.
// Returns string length if OK (including nul), -1 if error.
int
argstr(int n, char *buf, int max)
{
    80003cb0:	fd010113          	add	sp,sp,-48
    80003cb4:	02113423          	sd	ra,40(sp)
    80003cb8:	02813023          	sd	s0,32(sp)
    80003cbc:	00913c23          	sd	s1,24(sp)
    80003cc0:	01213823          	sd	s2,16(sp)
    80003cc4:	03010413          	add	s0,sp,48
    80003cc8:	00058493          	mv	s1,a1
    80003ccc:	00060913          	mv	s2,a2
  uint64 addr;
  argaddr(n, &addr);
    80003cd0:	fd840593          	add	a1,s0,-40
    80003cd4:	00000097          	auipc	ra,0x0
    80003cd8:	fa4080e7          	jalr	-92(ra) # 80003c78 <argaddr>
  return fetchstr(addr, buf, max);
    80003cdc:	00090613          	mv	a2,s2
    80003ce0:	00048593          	mv	a1,s1
    80003ce4:	fd843503          	ld	a0,-40(s0)
    80003ce8:	00000097          	auipc	ra,0x0
    80003cec:	edc080e7          	jalr	-292(ra) # 80003bc4 <fetchstr>
}
    80003cf0:	02813083          	ld	ra,40(sp)
    80003cf4:	02013403          	ld	s0,32(sp)
    80003cf8:	01813483          	ld	s1,24(sp)
    80003cfc:	01013903          	ld	s2,16(sp)
    80003d00:	03010113          	add	sp,sp,48
    80003d04:	00008067          	ret

0000000080003d08 <syscall>:
[SYS_close]   sys_close,
};

void
syscall(void)
{
    80003d08:	fe010113          	add	sp,sp,-32
    80003d0c:	00113c23          	sd	ra,24(sp)
    80003d10:	00813823          	sd	s0,16(sp)
    80003d14:	00913423          	sd	s1,8(sp)
    80003d18:	01213023          	sd	s2,0(sp)
    80003d1c:	02010413          	add	s0,sp,32
  int num;
  struct proc *p = myproc();
    80003d20:	ffffe097          	auipc	ra,0xffffe
    80003d24:	734080e7          	jalr	1844(ra) # 80002454 <myproc>
    80003d28:	00050493          	mv	s1,a0

  num = p->trapframe->a7;
    80003d2c:	05853903          	ld	s2,88(a0)
    80003d30:	0a893783          	ld	a5,168(s2)
    80003d34:	0007869b          	sext.w	a3,a5
  if(num > 0 && num < NELEM(syscalls) && syscalls[num]) {
    80003d38:	fff7879b          	addw	a5,a5,-1
    80003d3c:	01400713          	li	a4,20
    80003d40:	02f76463          	bltu	a4,a5,80003d68 <syscall+0x60>
    80003d44:	00369713          	sll	a4,a3,0x3
    80003d48:	00006797          	auipc	a5,0x6
    80003d4c:	7c078793          	add	a5,a5,1984 # 8000a508 <syscalls>
    80003d50:	00e787b3          	add	a5,a5,a4
    80003d54:	0007b783          	ld	a5,0(a5)
    80003d58:	00078863          	beqz	a5,80003d68 <syscall+0x60>
    // Use num to lookup the system call function for num, call it,
    // and store its return value in p->trapframe->a0
    p->trapframe->a0 = syscalls[num]();
    80003d5c:	000780e7          	jalr	a5
    80003d60:	06a93823          	sd	a0,112(s2)
    80003d64:	0280006f          	j	80003d8c <syscall+0x84>
  } else {
    printf("%d %s: unknown sys call %d\n",
    80003d68:	15848613          	add	a2,s1,344
    80003d6c:	0304a583          	lw	a1,48(s1)
    80003d70:	00006517          	auipc	a0,0x6
    80003d74:	76050513          	add	a0,a0,1888 # 8000a4d0 <states.0+0x150>
    80003d78:	ffffd097          	auipc	ra,0xffffd
    80003d7c:	9ac080e7          	jalr	-1620(ra) # 80000724 <printf>
            p->pid, p->name, num);
    p->trapframe->a0 = -1;
    80003d80:	0584b783          	ld	a5,88(s1)
    80003d84:	fff00713          	li	a4,-1
    80003d88:	06e7b823          	sd	a4,112(a5)
  }
}
    80003d8c:	01813083          	ld	ra,24(sp)
    80003d90:	01013403          	ld	s0,16(sp)
    80003d94:	00813483          	ld	s1,8(sp)
    80003d98:	00013903          	ld	s2,0(sp)
    80003d9c:	02010113          	add	sp,sp,32
    80003da0:	00008067          	ret

0000000080003da4 <sys_exit>:
#include "spinlock.h"
#include "proc.h"

uint64
sys_exit(void)
{
    80003da4:	fe010113          	add	sp,sp,-32
    80003da8:	00113c23          	sd	ra,24(sp)
    80003dac:	00813823          	sd	s0,16(sp)
    80003db0:	02010413          	add	s0,sp,32
  int n;
  argint(0, &n);
    80003db4:	fec40593          	add	a1,s0,-20
    80003db8:	00000513          	li	a0,0
    80003dbc:	00000097          	auipc	ra,0x0
    80003dc0:	e84080e7          	jalr	-380(ra) # 80003c40 <argint>
  exit(n);
    80003dc4:	fec42503          	lw	a0,-20(s0)
    80003dc8:	fffff097          	auipc	ra,0xfffff
    80003dcc:	194080e7          	jalr	404(ra) # 80002f5c <exit>
  return 0;  // not reached
}
    80003dd0:	00000513          	li	a0,0
    80003dd4:	01813083          	ld	ra,24(sp)
    80003dd8:	01013403          	ld	s0,16(sp)
    80003ddc:	02010113          	add	sp,sp,32
    80003de0:	00008067          	ret

0000000080003de4 <sys_getpid>:

uint64
sys_getpid(void)
{
    80003de4:	ff010113          	add	sp,sp,-16
    80003de8:	00113423          	sd	ra,8(sp)
    80003dec:	00813023          	sd	s0,0(sp)
    80003df0:	01010413          	add	s0,sp,16
  return myproc()->pid;
    80003df4:	ffffe097          	auipc	ra,0xffffe
    80003df8:	660080e7          	jalr	1632(ra) # 80002454 <myproc>
}
    80003dfc:	03052503          	lw	a0,48(a0)
    80003e00:	00813083          	ld	ra,8(sp)
    80003e04:	00013403          	ld	s0,0(sp)
    80003e08:	01010113          	add	sp,sp,16
    80003e0c:	00008067          	ret

0000000080003e10 <sys_fork>:

uint64
sys_fork(void)
{
    80003e10:	ff010113          	add	sp,sp,-16
    80003e14:	00113423          	sd	ra,8(sp)
    80003e18:	00813023          	sd	s0,0(sp)
    80003e1c:	01010413          	add	s0,sp,16
  return fork();
    80003e20:	fffff097          	auipc	ra,0xfffff
    80003e24:	b94080e7          	jalr	-1132(ra) # 800029b4 <fork>
}
    80003e28:	00813083          	ld	ra,8(sp)
    80003e2c:	00013403          	ld	s0,0(sp)
    80003e30:	01010113          	add	sp,sp,16
    80003e34:	00008067          	ret

0000000080003e38 <sys_wait>:

uint64
sys_wait(void)
{
    80003e38:	fe010113          	add	sp,sp,-32
    80003e3c:	00113c23          	sd	ra,24(sp)
    80003e40:	00813823          	sd	s0,16(sp)
    80003e44:	02010413          	add	s0,sp,32
  uint64 p;
  argaddr(0, &p);
    80003e48:	fe840593          	add	a1,s0,-24
    80003e4c:	00000513          	li	a0,0
    80003e50:	00000097          	auipc	ra,0x0
    80003e54:	e28080e7          	jalr	-472(ra) # 80003c78 <argaddr>
  return wait(p);
    80003e58:	fe843503          	ld	a0,-24(s0)
    80003e5c:	fffff097          	auipc	ra,0xfffff
    80003e60:	340080e7          	jalr	832(ra) # 8000319c <wait>
}
    80003e64:	01813083          	ld	ra,24(sp)
    80003e68:	01013403          	ld	s0,16(sp)
    80003e6c:	02010113          	add	sp,sp,32
    80003e70:	00008067          	ret

0000000080003e74 <sys_sbrk>:

uint64
sys_sbrk(void)
{
    80003e74:	fd010113          	add	sp,sp,-48
    80003e78:	02113423          	sd	ra,40(sp)
    80003e7c:	02813023          	sd	s0,32(sp)
    80003e80:	00913c23          	sd	s1,24(sp)
    80003e84:	03010413          	add	s0,sp,48
  uint64 addr;
  int n;

  argint(0, &n);
    80003e88:	fdc40593          	add	a1,s0,-36
    80003e8c:	00000513          	li	a0,0
    80003e90:	00000097          	auipc	ra,0x0
    80003e94:	db0080e7          	jalr	-592(ra) # 80003c40 <argint>
  addr = myproc()->sz;
    80003e98:	ffffe097          	auipc	ra,0xffffe
    80003e9c:	5bc080e7          	jalr	1468(ra) # 80002454 <myproc>
    80003ea0:	04853483          	ld	s1,72(a0)
  if(growproc(n) < 0)
    80003ea4:	fdc42503          	lw	a0,-36(s0)
    80003ea8:	fffff097          	auipc	ra,0xfffff
    80003eac:	a7c080e7          	jalr	-1412(ra) # 80002924 <growproc>
    80003eb0:	00054e63          	bltz	a0,80003ecc <sys_sbrk+0x58>
    return -1;
  return addr;
}
    80003eb4:	00048513          	mv	a0,s1
    80003eb8:	02813083          	ld	ra,40(sp)
    80003ebc:	02013403          	ld	s0,32(sp)
    80003ec0:	01813483          	ld	s1,24(sp)
    80003ec4:	03010113          	add	sp,sp,48
    80003ec8:	00008067          	ret
    return -1;
    80003ecc:	fff00493          	li	s1,-1
    80003ed0:	fe5ff06f          	j	80003eb4 <sys_sbrk+0x40>

0000000080003ed4 <sys_sleep>:

uint64
sys_sleep(void)
{
    80003ed4:	fc010113          	add	sp,sp,-64
    80003ed8:	02113c23          	sd	ra,56(sp)
    80003edc:	02813823          	sd	s0,48(sp)
    80003ee0:	02913423          	sd	s1,40(sp)
    80003ee4:	03213023          	sd	s2,32(sp)
